/home/devilogic/sdk/android-ndk-r8e/toolchains/arm-linux-androideabi-4.4.3/prebuilt/linux-x86_64/bin/arm-linux-androideabi-objdump -D ./illa_arm.so

./illa_arm.so:     file format elf32-littlearm


Disassembly of section .plt:

0000971c <__cxa_atexit@plt-0x14>:
    971c:	e52de004 	push	{lr}		; (str lr, [sp, #-4]!)
    9720:	e59fe004 	ldr	lr, [pc, #4]	; 972c <__cxa_atexit@plt-0x4>
    9724:	e08fe00e 	add	lr, pc, lr
    9728:	e5bef008 	ldr	pc, [lr, #8]!
    972c:	00021784 	andeq	r1, r2, r4, lsl #15

00009730 <__cxa_atexit@plt>:
    9730:	e28fc600 	add	ip, pc, #0	; 0x0
    9734:	e28cca21 	add	ip, ip, #135168	; 0x21000
    9738:	e5bcf784 	ldr	pc, [ip, #1924]!

0000973c <__cxa_finalize@plt>:
    973c:	e28fc600 	add	ip, pc, #0	; 0x0
    9740:	e28cca21 	add	ip, ip, #135168	; 0x21000
    9744:	e5bcf77c 	ldr	pc, [ip, #1916]!

00009748 <malloc@plt>:
    9748:	e28fc600 	add	ip, pc, #0	; 0x0
    974c:	e28cca21 	add	ip, ip, #135168	; 0x21000
    9750:	e5bcf774 	ldr	pc, [ip, #1908]!

00009754 <memset@plt>:
    9754:	e28fc600 	add	ip, pc, #0	; 0x0
    9758:	e28cca21 	add	ip, ip, #135168	; 0x21000
    975c:	e5bcf76c 	ldr	pc, [ip, #1900]!

00009760 <memcpy@plt>:
    9760:	e28fc600 	add	ip, pc, #0	; 0x0
    9764:	e28cca21 	add	ip, ip, #135168	; 0x21000
    9768:	e5bcf764 	ldr	pc, [ip, #1892]!

0000976c <strlen@plt>:
    976c:	e28fc600 	add	ip, pc, #0	; 0x0
    9770:	e28cca21 	add	ip, ip, #135168	; 0x21000
    9774:	e5bcf75c 	ldr	pc, [ip, #1884]!

00009778 <free@plt>:
    9778:	e28fc600 	add	ip, pc, #0	; 0x0
    977c:	e28cca21 	add	ip, ip, #135168	; 0x21000
    9780:	e5bcf754 	ldr	pc, [ip, #1876]!

00009784 <__android_log_print@plt>:
    9784:	e28fc600 	add	ip, pc, #0	; 0x0
    9788:	e28cca21 	add	ip, ip, #135168	; 0x21000
    978c:	e5bcf74c 	ldr	pc, [ip, #1868]!

00009790 <exit@plt>:
    9790:	e28fc600 	add	ip, pc, #0	; 0x0
    9794:	e28cca21 	add	ip, ip, #135168	; 0x21000
    9798:	e5bcf744 	ldr	pc, [ip, #1860]!

0000979c <pthread_mutex_init@plt>:
    979c:	e28fc600 	add	ip, pc, #0	; 0x0
    97a0:	e28cca21 	add	ip, ip, #135168	; 0x21000
    97a4:	e5bcf73c 	ldr	pc, [ip, #1852]!

000097a8 <pthread_cond_init@plt>:
    97a8:	e28fc600 	add	ip, pc, #0	; 0x0
    97ac:	e28cca21 	add	ip, ip, #135168	; 0x21000
    97b0:	e5bcf734 	ldr	pc, [ip, #1844]!

000097b4 <pthread_create@plt>:
    97b4:	e28fc600 	add	ip, pc, #0	; 0x0
    97b8:	e28cca21 	add	ip, ip, #135168	; 0x21000
    97bc:	e5bcf72c 	ldr	pc, [ip, #1836]!

000097c0 <pthread_mutex_lock@plt>:
    97c0:	e28fc600 	add	ip, pc, #0	; 0x0
    97c4:	e28cca21 	add	ip, ip, #135168	; 0x21000
    97c8:	e5bcf724 	ldr	pc, [ip, #1828]!

000097cc <pthread_cond_signal@plt>:
    97cc:	e28fc600 	add	ip, pc, #0	; 0x0
    97d0:	e28cca21 	add	ip, ip, #135168	; 0x21000
    97d4:	e5bcf71c 	ldr	pc, [ip, #1820]!

000097d8 <pthread_mutex_unlock@plt>:
    97d8:	e28fc600 	add	ip, pc, #0	; 0x0
    97dc:	e28cca21 	add	ip, ip, #135168	; 0x21000
    97e0:	e5bcf714 	ldr	pc, [ip, #1812]!

000097e4 <pthread_cond_wait@plt>:
    97e4:	e28fc600 	add	ip, pc, #0	; 0x0
    97e8:	e28cca21 	add	ip, ip, #135168	; 0x21000
    97ec:	e5bcf70c 	ldr	pc, [ip, #1804]!

000097f0 <pthread_cond_broadcast@plt>:
    97f0:	e28fc600 	add	ip, pc, #0	; 0x0
    97f4:	e28cca21 	add	ip, ip, #135168	; 0x21000
    97f8:	e5bcf704 	ldr	pc, [ip, #1796]!

000097fc <pthread_join@plt>:
    97fc:	e28fc600 	add	ip, pc, #0	; 0x0
    9800:	e28cca21 	add	ip, ip, #135168	; 0x21000
    9804:	e5bcf6fc 	ldr	pc, [ip, #1788]!

00009808 <stat@plt>:
    9808:	e28fc600 	add	ip, pc, #0	; 0x0
    980c:	e28cca21 	add	ip, ip, #135168	; 0x21000
    9810:	e5bcf6f4 	ldr	pc, [ip, #1780]!

00009814 <open@plt>:
    9814:	e28fc600 	add	ip, pc, #0	; 0x0
    9818:	e28cca21 	add	ip, ip, #135168	; 0x21000
    981c:	e5bcf6ec 	ldr	pc, [ip, #1772]!

00009820 <mmap@plt>:
    9820:	e28fc600 	add	ip, pc, #0	; 0x0
    9824:	e28cca21 	add	ip, ip, #135168	; 0x21000
    9828:	e5bcf6e4 	ldr	pc, [ip, #1764]!

0000982c <close@plt>:
    982c:	e28fc600 	add	ip, pc, #0	; 0x0
    9830:	e28cca21 	add	ip, ip, #135168	; 0x21000
    9834:	e5bcf6dc 	ldr	pc, [ip, #1756]!

00009838 <munmap@plt>:
    9838:	e28fc600 	add	ip, pc, #0	; 0x0
    983c:	e28cca21 	add	ip, ip, #135168	; 0x21000
    9840:	e5bcf6d4 	ldr	pc, [ip, #1748]!

00009844 <strcmp@plt>:
    9844:	e28fc600 	add	ip, pc, #0	; 0x0
    9848:	e28cca21 	add	ip, ip, #135168	; 0x21000
    984c:	e5bcf6cc 	ldr	pc, [ip, #1740]!

00009850 <setjmp@plt>:
    9850:	e28fc600 	add	ip, pc, #0	; 0x0
    9854:	e28cca21 	add	ip, ip, #135168	; 0x21000
    9858:	e5bcf6c4 	ldr	pc, [ip, #1732]!

0000985c <strchr@plt>:
    985c:	e28fc600 	add	ip, pc, #0	; 0x0
    9860:	e28cca21 	add	ip, ip, #135168	; 0x21000
    9864:	e5bcf6bc 	ldr	pc, [ip, #1724]!

00009868 <dlopen@plt>:
    9868:	e28fc600 	add	ip, pc, #0	; 0x0
    986c:	e28cca21 	add	ip, ip, #135168	; 0x21000
    9870:	e5bcf6b4 	ldr	pc, [ip, #1716]!

00009874 <sleep@plt>:
    9874:	e28fc600 	add	ip, pc, #0	; 0x0
    9878:	e28cca21 	add	ip, ip, #135168	; 0x21000
    987c:	e5bcf6ac 	ldr	pc, [ip, #1708]!

00009880 <memcmp@plt>:
    9880:	e28fc600 	add	ip, pc, #0	; 0x0
    9884:	e28cca21 	add	ip, ip, #135168	; 0x21000
    9888:	e5bcf6a4 	ldr	pc, [ip, #1700]!

0000988c <dlclose@plt>:
    988c:	e28fc600 	add	ip, pc, #0	; 0x0
    9890:	e28cca21 	add	ip, ip, #135168	; 0x21000
    9894:	e5bcf69c 	ldr	pc, [ip, #1692]!

00009898 <atoi@plt>:
    9898:	e28fc600 	add	ip, pc, #0	; 0x0
    989c:	e28cca21 	add	ip, ip, #135168	; 0x21000
    98a0:	e5bcf694 	ldr	pc, [ip, #1684]!

000098a4 <pthread_kill@plt>:
    98a4:	e28fc600 	add	ip, pc, #0	; 0x0
    98a8:	e28cca21 	add	ip, ip, #135168	; 0x21000
    98ac:	e5bcf68c 	ldr	pc, [ip, #1676]!

000098b0 <clock@plt>:
    98b0:	e28fc600 	add	ip, pc, #0	; 0x0
    98b4:	e28cca21 	add	ip, ip, #135168	; 0x21000
    98b8:	e5bcf684 	ldr	pc, [ip, #1668]!

000098bc <read@plt>:
    98bc:	e28fc600 	add	ip, pc, #0	; 0x0
    98c0:	e28cca21 	add	ip, ip, #135168	; 0x21000
    98c4:	e5bcf67c 	ldr	pc, [ip, #1660]!

000098c8 <write@plt>:
    98c8:	e28fc600 	add	ip, pc, #0	; 0x0
    98cc:	e28cca21 	add	ip, ip, #135168	; 0x21000
    98d0:	e5bcf674 	ldr	pc, [ip, #1652]!

000098d4 <pthread_key_create@plt>:
    98d4:	e28fc600 	add	ip, pc, #0	; 0x0
    98d8:	e28cca21 	add	ip, ip, #135168	; 0x21000
    98dc:	e5bcf66c 	ldr	pc, [ip, #1644]!

000098e0 <pthread_key_delete@plt>:
    98e0:	e28fc600 	add	ip, pc, #0	; 0x0
    98e4:	e28cca21 	add	ip, ip, #135168	; 0x21000
    98e8:	e5bcf664 	ldr	pc, [ip, #1636]!

000098ec <pthread_getspecific@plt>:
    98ec:	e28fc600 	add	ip, pc, #0	; 0x0
    98f0:	e28cca21 	add	ip, ip, #135168	; 0x21000
    98f4:	e5bcf65c 	ldr	pc, [ip, #1628]!

000098f8 <pthread_setspecific@plt>:
    98f8:	e28fc600 	add	ip, pc, #0	; 0x0
    98fc:	e28cca21 	add	ip, ip, #135168	; 0x21000
    9900:	e5bcf654 	ldr	pc, [ip, #1620]!

00009904 <abort@plt>:
    9904:	e28fc600 	add	ip, pc, #0	; 0x0
    9908:	e28cca21 	add	ip, ip, #135168	; 0x21000
    990c:	e5bcf64c 	ldr	pc, [ip, #1612]!

00009910 <fwrite@plt>:
    9910:	e28fc600 	add	ip, pc, #0	; 0x0
    9914:	e28cca21 	add	ip, ip, #135168	; 0x21000
    9918:	e5bcf644 	ldr	pc, [ip, #1604]!

0000991c <fputs@plt>:
    991c:	e28fc600 	add	ip, pc, #0	; 0x0
    9920:	e28cca21 	add	ip, ip, #135168	; 0x21000
    9924:	e5bcf63c 	ldr	pc, [ip, #1596]!

00009928 <fputc@plt>:
    9928:	e28fc600 	add	ip, pc, #0	; 0x0
    992c:	e28cca21 	add	ip, ip, #135168	; 0x21000
    9930:	e5bcf634 	ldr	pc, [ip, #1588]!

00009934 <realloc@plt>:
    9934:	e28fc600 	add	ip, pc, #0	; 0x0
    9938:	e28cca21 	add	ip, ip, #135168	; 0x21000
    993c:	e5bcf62c 	ldr	pc, [ip, #1580]!

00009940 <sprintf@plt>:
    9940:	e28fc600 	add	ip, pc, #0	; 0x0
    9944:	e28cca21 	add	ip, ip, #135168	; 0x21000
    9948:	e5bcf624 	ldr	pc, [ip, #1572]!

0000994c <strncmp@plt>:
    994c:	e28fc600 	add	ip, pc, #0	; 0x0
    9950:	e28cca21 	add	ip, ip, #135168	; 0x21000
    9954:	e5bcf61c 	ldr	pc, [ip, #1564]!

00009958 <strcpy@plt>:
    9958:	e28fc600 	add	ip, pc, #0	; 0x0
    995c:	e28cca21 	add	ip, ip, #135168	; 0x21000
    9960:	e5bcf614 	ldr	pc, [ip, #1556]!

00009964 <opendir@plt>:
    9964:	e28fc600 	add	ip, pc, #0	; 0x0
    9968:	e28cca21 	add	ip, ip, #135168	; 0x21000
    996c:	e5bcf60c 	ldr	pc, [ip, #1548]!

00009970 <strcat@plt>:
    9970:	e28fc600 	add	ip, pc, #0	; 0x0
    9974:	e28cca21 	add	ip, ip, #135168	; 0x21000
    9978:	e5bcf604 	ldr	pc, [ip, #1540]!

0000997c <fopen@plt>:
    997c:	e28fc600 	add	ip, pc, #0	; 0x0
    9980:	e28cca21 	add	ip, ip, #135168	; 0x21000
    9984:	e5bcf5fc 	ldr	pc, [ip, #1532]!

00009988 <fscanf@plt>:
    9988:	e28fc600 	add	ip, pc, #0	; 0x0
    998c:	e28cca21 	add	ip, ip, #135168	; 0x21000
    9990:	e5bcf5f4 	ldr	pc, [ip, #1524]!

00009994 <fclose@plt>:
    9994:	e28fc600 	add	ip, pc, #0	; 0x0
    9998:	e28cca21 	add	ip, ip, #135168	; 0x21000
    999c:	e5bcf5ec 	ldr	pc, [ip, #1516]!

000099a0 <strstr@plt>:
    99a0:	e28fc600 	add	ip, pc, #0	; 0x0
    99a4:	e28cca21 	add	ip, ip, #135168	; 0x21000
    99a8:	e5bcf5e4 	ldr	pc, [ip, #1508]!

000099ac <readdir@plt>:
    99ac:	e28fc600 	add	ip, pc, #0	; 0x0
    99b0:	e28cca21 	add	ip, ip, #135168	; 0x21000
    99b4:	e5bcf5dc 	ldr	pc, [ip, #1500]!

000099b8 <closedir@plt>:
    99b8:	e28fc600 	add	ip, pc, #0	; 0x0
    99bc:	e28cca21 	add	ip, ip, #135168	; 0x21000
    99c0:	e5bcf5d4 	ldr	pc, [ip, #1492]!

000099c4 <pthread_mutex_destroy@plt>:
    99c4:	e28fc600 	add	ip, pc, #0	; 0x0
    99c8:	e28cca21 	add	ip, ip, #135168	; 0x21000
    99cc:	e5bcf5cc 	ldr	pc, [ip, #1484]!

000099d0 <getpid@plt>:
    99d0:	e28fc600 	add	ip, pc, #0	; 0x0
    99d4:	e28cca21 	add	ip, ip, #135168	; 0x21000
    99d8:	e5bcf5c4 	ldr	pc, [ip, #1476]!

000099dc <system@plt>:
    99dc:	e28fc600 	add	ip, pc, #0	; 0x0
    99e0:	e28cca21 	add	ip, ip, #135168	; 0x21000
    99e4:	e5bcf5bc 	ldr	pc, [ip, #1468]!

000099e8 <kill@plt>:
    99e8:	e28fc600 	add	ip, pc, #0	; 0x0
    99ec:	e28cca21 	add	ip, ip, #135168	; 0x21000
    99f0:	e5bcf5b4 	ldr	pc, [ip, #1460]!

000099f4 <inotify_init@plt>:
    99f4:	e28fc600 	add	ip, pc, #0	; 0x0
    99f8:	e28cca21 	add	ip, ip, #135168	; 0x21000
    99fc:	e5bcf5ac 	ldr	pc, [ip, #1452]!

00009a00 <inotify_add_watch@plt>:
    9a00:	e28fc600 	add	ip, pc, #0	; 0x0
    9a04:	e28cca21 	add	ip, ip, #135168	; 0x21000
    9a08:	e5bcf5a4 	ldr	pc, [ip, #1444]!

00009a0c <inotify_rm_watch@plt>:
    9a0c:	e28fc600 	add	ip, pc, #0	; 0x0
    9a10:	e28cca21 	add	ip, ip, #135168	; 0x21000
    9a14:	e5bcf59c 	ldr	pc, [ip, #1436]!

00009a18 <ptrace@plt>:
    9a18:	e28fc600 	add	ip, pc, #0	; 0x0
    9a1c:	e28cca21 	add	ip, ip, #135168	; 0x21000
    9a20:	e5bcf594 	ldr	pc, [ip, #1428]!

00009a24 <fgets@plt>:
    9a24:	e28fc600 	add	ip, pc, #0	; 0x0
    9a28:	e28cca21 	add	ip, ip, #135168	; 0x21000
    9a2c:	e5bcf58c 	ldr	pc, [ip, #1420]!

00009a30 <lrand48@plt>:
    9a30:	e28fc600 	add	ip, pc, #0	; 0x0
    9a34:	e28cca21 	add	ip, ip, #135168	; 0x21000
    9a38:	e5bcf584 	ldr	pc, [ip, #1412]!

00009a3c <srand48@plt>:
    9a3c:	e28fc600 	add	ip, pc, #0	; 0x0
    9a40:	e28cca21 	add	ip, ip, #135168	; 0x21000
    9a44:	e5bcf57c 	ldr	pc, [ip, #1404]!

00009a48 <longjmp@plt>:
    9a48:	e28fc600 	add	ip, pc, #0	; 0x0
    9a4c:	e28cca21 	add	ip, ip, #135168	; 0x21000
    9a50:	e5bcf574 	ldr	pc, [ip, #1396]!

00009a54 <time@plt>:
    9a54:	e28fc600 	add	ip, pc, #0	; 0x0
    9a58:	e28cca21 	add	ip, ip, #135168	; 0x21000
    9a5c:	e5bcf56c 	ldr	pc, [ip, #1388]!

00009a60 <__assert2@plt>:
    9a60:	e28fc600 	add	ip, pc, #0	; 0x0
    9a64:	e28cca21 	add	ip, ip, #135168	; 0x21000
    9a68:	e5bcf564 	ldr	pc, [ip, #1380]!

00009a6c <printf@plt>:
    9a6c:	e28fc600 	add	ip, pc, #0	; 0x0
    9a70:	e28cca21 	add	ip, ip, #135168	; 0x21000
    9a74:	e5bcf55c 	ldr	pc, [ip, #1372]!

00009a78 <dlsym@plt>:
    9a78:	e28fc600 	add	ip, pc, #0	; 0x0
    9a7c:	e28cca21 	add	ip, ip, #135168	; 0x21000
    9a80:	e5bcf554 	ldr	pc, [ip, #1364]!

00009a84 <strncpy@plt>:
    9a84:	e28fc600 	add	ip, pc, #0	; 0x0
    9a88:	e28cca21 	add	ip, ip, #135168	; 0x21000
    9a8c:	e5bcf54c 	ldr	pc, [ip, #1356]!

00009a90 <isxdigit@plt>:
    9a90:	e28fc600 	add	ip, pc, #0	; 0x0
    9a94:	e28cca21 	add	ip, ip, #135168	; 0x21000
    9a98:	e5bcf544 	ldr	pc, [ip, #1348]!

00009a9c <fseek@plt>:
    9a9c:	e28fc600 	add	ip, pc, #0	; 0x0
    9aa0:	e28cca21 	add	ip, ip, #135168	; 0x21000
    9aa4:	e5bcf53c 	ldr	pc, [ip, #1340]!

00009aa8 <ftell@plt>:
    9aa8:	e28fc600 	add	ip, pc, #0	; 0x0
    9aac:	e28cca21 	add	ip, ip, #135168	; 0x21000
    9ab0:	e5bcf534 	ldr	pc, [ip, #1332]!

00009ab4 <rewind@plt>:
    9ab4:	e28fc600 	add	ip, pc, #0	; 0x0
    9ab8:	e28cca21 	add	ip, ip, #135168	; 0x21000
    9abc:	e5bcf52c 	ldr	pc, [ip, #1324]!

00009ac0 <fread@plt>:
    9ac0:	e28fc600 	add	ip, pc, #0	; 0x0
    9ac4:	e28cca21 	add	ip, ip, #135168	; 0x21000
    9ac8:	e5bcf524 	ldr	pc, [ip, #1316]!

00009acc <sscanf@plt>:
    9acc:	e28fc600 	add	ip, pc, #0	; 0x0
    9ad0:	e28cca21 	add	ip, ip, #135168	; 0x21000
    9ad4:	e5bcf51c 	ldr	pc, [ip, #1308]!

00009ad8 <isspace@plt>:
    9ad8:	e28fc600 	add	ip, pc, #0	; 0x0
    9adc:	e28cca21 	add	ip, ip, #135168	; 0x21000
    9ae0:	e5bcf514 	ldr	pc, [ip, #1300]!

00009ae4 <strtod@plt>:
    9ae4:	e28fc600 	add	ip, pc, #0	; 0x0
    9ae8:	e28cca21 	add	ip, ip, #135168	; 0x21000
    9aec:	e5bcf50c 	ldr	pc, [ip, #1292]!

00009af0 <__gnu_Unwind_Find_exidx@plt>:
    9af0:	e28fc600 	add	ip, pc, #0	; 0x0
    9af4:	e28cca21 	add	ip, ip, #135168	; 0x21000
    9af8:	e5bcf504 	ldr	pc, [ip, #1284]!

Disassembly of section .text:

00009b00 <__atexit_handler_wrapper>:
    9b00:	e3500000 	cmp	r0, #0	; 0x0
    9b04:	e92d4008 	push	{r3, lr}
    9b08:	08bd8008 	popeq	{r3, pc}
    9b0c:	e12fff30 	blx	r0
    9b10:	e8bd8008 	pop	{r3, pc}

00009b14 <atexit>:
    9b14:	e1a01000 	mov	r1, r0
    9b18:	e59f200c 	ldr	r2, [pc, #12]	; 9b2c <atexit+0x18>
    9b1c:	e59f000c 	ldr	r0, [pc, #12]	; 9b30 <atexit+0x1c>
    9b20:	e08f2002 	add	r2, pc, r2
    9b24:	e08f0000 	add	r0, pc, r0
    9b28:	eaffff00 	b	9730 <__cxa_atexit@plt>
    9b2c:	000214d8 	.word	0x000214d8
    9b30:	ffffffd4 	.word	0xffffffd4

00009b34 <__on_dlclose>:
    9b34:	e59f0004 	ldr	r0, [pc, #4]	; 9b40 <__on_dlclose+0xc>
    9b38:	e08f0000 	add	r0, pc, r0
    9b3c:	eafffefe 	b	973c <__cxa_finalize@plt>
    9b40:	000214c0 	.word	0x000214c0

00009b44 <Base64decode_len>:
    9b44:	e92d0810 	push	{r4, fp}
    9b48:	e28db004 	add	fp, sp, #4	; 0x4
    9b4c:	e24dd010 	sub	sp, sp, #16	; 0x10
    9b50:	e50b0010 	str	r0, [fp, #-16]
    9b54:	e51b4010 	ldr	r4, [fp, #-16]
    9b58:	e1a00000 	nop			(mov r0,r0)
    9b5c:	e5d43000 	ldrb	r3, [r4]
    9b60:	e1a02003 	mov	r2, r3
    9b64:	e59f3070 	ldr	r3, [pc, #112]	; 9bdc <Base64decode_len+0x98>
    9b68:	e08f3003 	add	r3, pc, r3
    9b6c:	e7d33002 	ldrb	r3, [r3, r2]
    9b70:	e353003f 	cmp	r3, #63	; 0x3f
    9b74:	83a03000 	movhi	r3, #0	; 0x0
    9b78:	93a03001 	movls	r3, #1	; 0x1
    9b7c:	e20330ff 	and	r3, r3, #255	; 0xff
    9b80:	e2844001 	add	r4, r4, #1	; 0x1
    9b84:	e3530000 	cmp	r3, #0	; 0x0
    9b88:	1afffff3 	bne	9b5c <Base64decode_len+0x18>
    9b8c:	e1a02004 	mov	r2, r4
    9b90:	e51b3010 	ldr	r3, [fp, #-16]
    9b94:	e0633002 	rsb	r3, r3, r2
    9b98:	e2434001 	sub	r4, r3, #1	; 0x1
    9b9c:	e2843003 	add	r3, r4, #3	; 0x3
    9ba0:	e2832003 	add	r2, r3, #3	; 0x3
    9ba4:	e3530000 	cmp	r3, #0	; 0x0
    9ba8:	b1a03002 	movlt	r3, r2
    9bac:	e1a03143 	asr	r3, r3, #2
    9bb0:	e1a02003 	mov	r2, r3
    9bb4:	e1a03002 	mov	r3, r2
    9bb8:	e1a03083 	lsl	r3, r3, #1
    9bbc:	e0833002 	add	r3, r3, r2
    9bc0:	e50b3008 	str	r3, [fp, #-8]
    9bc4:	e51b3008 	ldr	r3, [fp, #-8]
    9bc8:	e2833001 	add	r3, r3, #1	; 0x1
    9bcc:	e1a00003 	mov	r0, r3
    9bd0:	e24bd004 	sub	sp, fp, #4	; 0x4
    9bd4:	e8bd0810 	pop	{r4, fp}
    9bd8:	e12fff1e 	bx	lr
    9bdc:	0001cce0 	.word	0x0001cce0

00009be0 <Base64decode>:
    9be0:	e92d0870 	push	{r4, r5, r6, fp}
    9be4:	e28db00c 	add	fp, sp, #12	; 0xc
    9be8:	e24dd010 	sub	sp, sp, #16	; 0x10
    9bec:	e50b0018 	str	r0, [fp, #-24]
    9bf0:	e50b101c 	str	r1, [fp, #-28]
    9bf4:	e51b501c 	ldr	r5, [fp, #-28]
    9bf8:	e1a00000 	nop			(mov r0,r0)
    9bfc:	e5d53000 	ldrb	r3, [r5]
    9c00:	e1a02003 	mov	r2, r3
    9c04:	e59f32bc 	ldr	r3, [pc, #700]	; 9ec8 <Base64decode+0x2e8>
    9c08:	e08f3003 	add	r3, pc, r3
    9c0c:	e7d33002 	ldrb	r3, [r3, r2]
    9c10:	e353003f 	cmp	r3, #63	; 0x3f
    9c14:	83a03000 	movhi	r3, #0	; 0x0
    9c18:	93a03001 	movls	r3, #1	; 0x1
    9c1c:	e20330ff 	and	r3, r3, #255	; 0xff
    9c20:	e2855001 	add	r5, r5, #1	; 0x1
    9c24:	e3530000 	cmp	r3, #0	; 0x0
    9c28:	1afffff3 	bne	9bfc <Base64decode+0x1c>
    9c2c:	e1a02005 	mov	r2, r5
    9c30:	e51b301c 	ldr	r3, [fp, #-28]
    9c34:	e0633002 	rsb	r3, r3, r2
    9c38:	e2436001 	sub	r6, r3, #1	; 0x1
    9c3c:	e2863003 	add	r3, r6, #3	; 0x3
    9c40:	e2832003 	add	r2, r3, #3	; 0x3
    9c44:	e3530000 	cmp	r3, #0	; 0x0
    9c48:	b1a03002 	movlt	r3, r2
    9c4c:	e1a03143 	asr	r3, r3, #2
    9c50:	e1a02003 	mov	r2, r3
    9c54:	e1a03002 	mov	r3, r2
    9c58:	e1a03083 	lsl	r3, r3, #1
    9c5c:	e0833002 	add	r3, r3, r2
    9c60:	e50b3010 	str	r3, [fp, #-16]
    9c64:	e51b4018 	ldr	r4, [fp, #-24]
    9c68:	e51b501c 	ldr	r5, [fp, #-28]
    9c6c:	ea00003e 	b	9d6c <Base64decode+0x18c>
    9c70:	e5d53000 	ldrb	r3, [r5]
    9c74:	e1a02003 	mov	r2, r3
    9c78:	e59f324c 	ldr	r3, [pc, #588]	; 9ecc <Base64decode+0x2ec>
    9c7c:	e08f3003 	add	r3, pc, r3
    9c80:	e7d33002 	ldrb	r3, [r3, r2]
    9c84:	e1a03103 	lsl	r3, r3, #2
    9c88:	e20320ff 	and	r2, r3, #255	; 0xff
    9c8c:	e2853001 	add	r3, r5, #1	; 0x1
    9c90:	e5d33000 	ldrb	r3, [r3]
    9c94:	e1a01003 	mov	r1, r3
    9c98:	e59f3230 	ldr	r3, [pc, #560]	; 9ed0 <Base64decode+0x2f0>
    9c9c:	e08f3003 	add	r3, pc, r3
    9ca0:	e7d33001 	ldrb	r3, [r3, r1]
    9ca4:	e1a03243 	asr	r3, r3, #4
    9ca8:	e20330ff 	and	r3, r3, #255	; 0xff
    9cac:	e1823003 	orr	r3, r2, r3
    9cb0:	e20330ff 	and	r3, r3, #255	; 0xff
    9cb4:	e20330ff 	and	r3, r3, #255	; 0xff
    9cb8:	e5c43000 	strb	r3, [r4]
    9cbc:	e2844001 	add	r4, r4, #1	; 0x1
    9cc0:	e2853001 	add	r3, r5, #1	; 0x1
    9cc4:	e5d33000 	ldrb	r3, [r3]
    9cc8:	e1a02003 	mov	r2, r3
    9ccc:	e59f3200 	ldr	r3, [pc, #512]	; 9ed4 <Base64decode+0x2f4>
    9cd0:	e08f3003 	add	r3, pc, r3
    9cd4:	e7d33002 	ldrb	r3, [r3, r2]
    9cd8:	e1a03203 	lsl	r3, r3, #4
    9cdc:	e20320ff 	and	r2, r3, #255	; 0xff
    9ce0:	e2853002 	add	r3, r5, #2	; 0x2
    9ce4:	e5d33000 	ldrb	r3, [r3]
    9ce8:	e1a01003 	mov	r1, r3
    9cec:	e59f31e4 	ldr	r3, [pc, #484]	; 9ed8 <Base64decode+0x2f8>
    9cf0:	e08f3003 	add	r3, pc, r3
    9cf4:	e7d33001 	ldrb	r3, [r3, r1]
    9cf8:	e1a03143 	asr	r3, r3, #2
    9cfc:	e20330ff 	and	r3, r3, #255	; 0xff
    9d00:	e1823003 	orr	r3, r2, r3
    9d04:	e20330ff 	and	r3, r3, #255	; 0xff
    9d08:	e20330ff 	and	r3, r3, #255	; 0xff
    9d0c:	e5c43000 	strb	r3, [r4]
    9d10:	e2844001 	add	r4, r4, #1	; 0x1
    9d14:	e2853002 	add	r3, r5, #2	; 0x2
    9d18:	e5d33000 	ldrb	r3, [r3]
    9d1c:	e1a02003 	mov	r2, r3
    9d20:	e59f31b4 	ldr	r3, [pc, #436]	; 9edc <Base64decode+0x2fc>
    9d24:	e08f3003 	add	r3, pc, r3
    9d28:	e7d33002 	ldrb	r3, [r3, r2]
    9d2c:	e1a03303 	lsl	r3, r3, #6
    9d30:	e20320ff 	and	r2, r3, #255	; 0xff
    9d34:	e2853003 	add	r3, r5, #3	; 0x3
    9d38:	e5d33000 	ldrb	r3, [r3]
    9d3c:	e1a01003 	mov	r1, r3
    9d40:	e59f3198 	ldr	r3, [pc, #408]	; 9ee0 <Base64decode+0x300>
    9d44:	e08f3003 	add	r3, pc, r3
    9d48:	e7d33001 	ldrb	r3, [r3, r1]
    9d4c:	e20330ff 	and	r3, r3, #255	; 0xff
    9d50:	e1823003 	orr	r3, r2, r3
    9d54:	e20330ff 	and	r3, r3, #255	; 0xff
    9d58:	e20330ff 	and	r3, r3, #255	; 0xff
    9d5c:	e5c43000 	strb	r3, [r4]
    9d60:	e2844001 	add	r4, r4, #1	; 0x1
    9d64:	e2855004 	add	r5, r5, #4	; 0x4
    9d68:	e2466004 	sub	r6, r6, #4	; 0x4
    9d6c:	e3560004 	cmp	r6, #4	; 0x4
    9d70:	d3a03000 	movle	r3, #0	; 0x0
    9d74:	c3a03001 	movgt	r3, #1	; 0x1
    9d78:	e20330ff 	and	r3, r3, #255	; 0xff
    9d7c:	e3530000 	cmp	r3, #0	; 0x0
    9d80:	1affffba 	bne	9c70 <Base64decode+0x90>
    9d84:	e3560001 	cmp	r6, #1	; 0x1
    9d88:	da000013 	ble	9ddc <Base64decode+0x1fc>
    9d8c:	e5d53000 	ldrb	r3, [r5]
    9d90:	e1a02003 	mov	r2, r3
    9d94:	e59f3148 	ldr	r3, [pc, #328]	; 9ee4 <Base64decode+0x304>
    9d98:	e08f3003 	add	r3, pc, r3
    9d9c:	e7d33002 	ldrb	r3, [r3, r2]
    9da0:	e1a03103 	lsl	r3, r3, #2
    9da4:	e20320ff 	and	r2, r3, #255	; 0xff
    9da8:	e2853001 	add	r3, r5, #1	; 0x1
    9dac:	e5d33000 	ldrb	r3, [r3]
    9db0:	e1a01003 	mov	r1, r3
    9db4:	e59f312c 	ldr	r3, [pc, #300]	; 9ee8 <Base64decode+0x308>
    9db8:	e08f3003 	add	r3, pc, r3
    9dbc:	e7d33001 	ldrb	r3, [r3, r1]
    9dc0:	e1a03243 	asr	r3, r3, #4
    9dc4:	e20330ff 	and	r3, r3, #255	; 0xff
    9dc8:	e1823003 	orr	r3, r2, r3
    9dcc:	e20330ff 	and	r3, r3, #255	; 0xff
    9dd0:	e20330ff 	and	r3, r3, #255	; 0xff
    9dd4:	e5c43000 	strb	r3, [r4]
    9dd8:	e2844001 	add	r4, r4, #1	; 0x1
    9ddc:	e3560002 	cmp	r6, #2	; 0x2
    9de0:	da000014 	ble	9e38 <Base64decode+0x258>
    9de4:	e2853001 	add	r3, r5, #1	; 0x1
    9de8:	e5d33000 	ldrb	r3, [r3]
    9dec:	e1a02003 	mov	r2, r3
    9df0:	e59f30f4 	ldr	r3, [pc, #244]	; 9eec <Base64decode+0x30c>
    9df4:	e08f3003 	add	r3, pc, r3
    9df8:	e7d33002 	ldrb	r3, [r3, r2]
    9dfc:	e1a03203 	lsl	r3, r3, #4
    9e00:	e20320ff 	and	r2, r3, #255	; 0xff
    9e04:	e2853002 	add	r3, r5, #2	; 0x2
    9e08:	e5d33000 	ldrb	r3, [r3]
    9e0c:	e1a01003 	mov	r1, r3
    9e10:	e59f30d8 	ldr	r3, [pc, #216]	; 9ef0 <Base64decode+0x310>
    9e14:	e08f3003 	add	r3, pc, r3
    9e18:	e7d33001 	ldrb	r3, [r3, r1]
    9e1c:	e1a03143 	asr	r3, r3, #2
    9e20:	e20330ff 	and	r3, r3, #255	; 0xff
    9e24:	e1823003 	orr	r3, r2, r3
    9e28:	e20330ff 	and	r3, r3, #255	; 0xff
    9e2c:	e20330ff 	and	r3, r3, #255	; 0xff
    9e30:	e5c43000 	strb	r3, [r4]
    9e34:	e2844001 	add	r4, r4, #1	; 0x1
    9e38:	e3560003 	cmp	r6, #3	; 0x3
    9e3c:	da000013 	ble	9e90 <Base64decode+0x2b0>
    9e40:	e2853002 	add	r3, r5, #2	; 0x2
    9e44:	e5d33000 	ldrb	r3, [r3]
    9e48:	e1a02003 	mov	r2, r3
    9e4c:	e59f30a0 	ldr	r3, [pc, #160]	; 9ef4 <Base64decode+0x314>
    9e50:	e08f3003 	add	r3, pc, r3
    9e54:	e7d33002 	ldrb	r3, [r3, r2]
    9e58:	e1a03303 	lsl	r3, r3, #6
    9e5c:	e20320ff 	and	r2, r3, #255	; 0xff
    9e60:	e2853003 	add	r3, r5, #3	; 0x3
    9e64:	e5d33000 	ldrb	r3, [r3]
    9e68:	e1a01003 	mov	r1, r3
    9e6c:	e59f3084 	ldr	r3, [pc, #132]	; 9ef8 <Base64decode+0x318>
    9e70:	e08f3003 	add	r3, pc, r3
    9e74:	e7d33001 	ldrb	r3, [r3, r1]
    9e78:	e20330ff 	and	r3, r3, #255	; 0xff
    9e7c:	e1823003 	orr	r3, r2, r3
    9e80:	e20330ff 	and	r3, r3, #255	; 0xff
    9e84:	e20330ff 	and	r3, r3, #255	; 0xff
    9e88:	e5c43000 	strb	r3, [r4]
    9e8c:	e2844001 	add	r4, r4, #1	; 0x1
    9e90:	e3a03000 	mov	r3, #0	; 0x0
    9e94:	e5c43000 	strb	r3, [r4]
    9e98:	e2844001 	add	r4, r4, #1	; 0x1
    9e9c:	e1a03006 	mov	r3, r6
    9ea0:	e2633000 	rsb	r3, r3, #0	; 0x0
    9ea4:	e2033003 	and	r3, r3, #3	; 0x3
    9ea8:	e51b2010 	ldr	r2, [fp, #-16]
    9eac:	e0633002 	rsb	r3, r3, r2
    9eb0:	e50b3010 	str	r3, [fp, #-16]
    9eb4:	e51b3010 	ldr	r3, [fp, #-16]
    9eb8:	e1a00003 	mov	r0, r3
    9ebc:	e24bd00c 	sub	sp, fp, #12	; 0xc
    9ec0:	e8bd0870 	pop	{r4, r5, r6, fp}
    9ec4:	e12fff1e 	bx	lr
    9ec8:	0001cc40 	.word	0x0001cc40
    9ecc:	0001cbcc 	.word	0x0001cbcc
    9ed0:	0001cbac 	.word	0x0001cbac
    9ed4:	0001cb78 	.word	0x0001cb78
    9ed8:	0001cb58 	.word	0x0001cb58
    9edc:	0001cb24 	.word	0x0001cb24
    9ee0:	0001cb04 	.word	0x0001cb04
    9ee4:	0001cab0 	.word	0x0001cab0
    9ee8:	0001ca90 	.word	0x0001ca90
    9eec:	0001ca54 	.word	0x0001ca54
    9ef0:	0001ca34 	.word	0x0001ca34
    9ef4:	0001c9f8 	.word	0x0001c9f8
    9ef8:	0001c9d8 	.word	0x0001c9d8

00009efc <Base64encode_len>:
    9efc:	e52db004 	push	{fp}		; (str fp, [sp, #-4]!)
    9f00:	e28db000 	add	fp, sp, #0	; 0x0
    9f04:	e24dd00c 	sub	sp, sp, #12	; 0xc
    9f08:	e50b0008 	str	r0, [fp, #-8]
    9f0c:	e51b3008 	ldr	r3, [fp, #-8]
    9f10:	e2833002 	add	r3, r3, #2	; 0x2
    9f14:	e59f2020 	ldr	r2, [pc, #32]	; 9f3c <Base64encode_len+0x40>
    9f18:	e0c21293 	smull	r1, r2, r3, r2
    9f1c:	e1a03fc3 	asr	r3, r3, #31
    9f20:	e0633002 	rsb	r3, r3, r2
    9f24:	e1a03103 	lsl	r3, r3, #2
    9f28:	e2833001 	add	r3, r3, #1	; 0x1
    9f2c:	e1a00003 	mov	r0, r3
    9f30:	e28bd000 	add	sp, fp, #0	; 0x0
    9f34:	e8bd0800 	pop	{fp}
    9f38:	e12fff1e 	bx	lr
    9f3c:	55555556 	.word	0x55555556

00009f40 <Base64encode>:
    9f40:	e52db004 	push	{fp}		; (str fp, [sp, #-4]!)
    9f44:	e28db000 	add	fp, sp, #0	; 0x0
    9f48:	e24dd01c 	sub	sp, sp, #28	; 0x1c
    9f4c:	e50b0010 	str	r0, [fp, #-16]
    9f50:	e50b1014 	str	r1, [fp, #-20]
    9f54:	e50b2018 	str	r2, [fp, #-24]
    9f58:	e51b3010 	ldr	r3, [fp, #-16]
    9f5c:	e50b300c 	str	r3, [fp, #-12]
    9f60:	e3a03000 	mov	r3, #0	; 0x0
    9f64:	e50b3008 	str	r3, [fp, #-8]
    9f68:	ea00004c 	b	a0a0 <Base64encode+0x160>
    9f6c:	e51b3008 	ldr	r3, [fp, #-8]
    9f70:	e51b2014 	ldr	r2, [fp, #-20]
    9f74:	e0823003 	add	r3, r2, r3
    9f78:	e5d33000 	ldrb	r3, [r3]
    9f7c:	e1a03123 	lsr	r3, r3, #2
    9f80:	e20330ff 	and	r3, r3, #255	; 0xff
    9f84:	e1a02003 	mov	r2, r3
    9f88:	e59f32c8 	ldr	r3, [pc, #712]	; a258 <Base64encode+0x318>
    9f8c:	e08f3003 	add	r3, pc, r3
    9f90:	e7d32002 	ldrb	r2, [r3, r2]
    9f94:	e51b300c 	ldr	r3, [fp, #-12]
    9f98:	e5c32000 	strb	r2, [r3]
    9f9c:	e51b300c 	ldr	r3, [fp, #-12]
    9fa0:	e2833001 	add	r3, r3, #1	; 0x1
    9fa4:	e50b300c 	str	r3, [fp, #-12]
    9fa8:	e51b3008 	ldr	r3, [fp, #-8]
    9fac:	e51b2014 	ldr	r2, [fp, #-20]
    9fb0:	e0823003 	add	r3, r2, r3
    9fb4:	e5d33000 	ldrb	r3, [r3]
    9fb8:	e2033003 	and	r3, r3, #3	; 0x3
    9fbc:	e1a02203 	lsl	r2, r3, #4
    9fc0:	e51b3008 	ldr	r3, [fp, #-8]
    9fc4:	e2833001 	add	r3, r3, #1	; 0x1
    9fc8:	e51b1014 	ldr	r1, [fp, #-20]
    9fcc:	e0813003 	add	r3, r1, r3
    9fd0:	e5d33000 	ldrb	r3, [r3]
    9fd4:	e1a03223 	lsr	r3, r3, #4
    9fd8:	e20330ff 	and	r3, r3, #255	; 0xff
    9fdc:	e1822003 	orr	r2, r2, r3
    9fe0:	e59f3274 	ldr	r3, [pc, #628]	; a25c <Base64encode+0x31c>
    9fe4:	e08f3003 	add	r3, pc, r3
    9fe8:	e7d32002 	ldrb	r2, [r3, r2]
    9fec:	e51b300c 	ldr	r3, [fp, #-12]
    9ff0:	e5c32000 	strb	r2, [r3]
    9ff4:	e51b300c 	ldr	r3, [fp, #-12]
    9ff8:	e2833001 	add	r3, r3, #1	; 0x1
    9ffc:	e50b300c 	str	r3, [fp, #-12]
    a000:	e51b3008 	ldr	r3, [fp, #-8]
    a004:	e2833001 	add	r3, r3, #1	; 0x1
    a008:	e51b2014 	ldr	r2, [fp, #-20]
    a00c:	e0823003 	add	r3, r2, r3
    a010:	e5d33000 	ldrb	r3, [r3]
    a014:	e203300f 	and	r3, r3, #15	; 0xf
    a018:	e1a02103 	lsl	r2, r3, #2
    a01c:	e51b3008 	ldr	r3, [fp, #-8]
    a020:	e2833002 	add	r3, r3, #2	; 0x2
    a024:	e51b1014 	ldr	r1, [fp, #-20]
    a028:	e0813003 	add	r3, r1, r3
    a02c:	e5d33000 	ldrb	r3, [r3]
    a030:	e1a03323 	lsr	r3, r3, #6
    a034:	e20330ff 	and	r3, r3, #255	; 0xff
    a038:	e1822003 	orr	r2, r2, r3
    a03c:	e59f321c 	ldr	r3, [pc, #540]	; a260 <Base64encode+0x320>
    a040:	e08f3003 	add	r3, pc, r3
    a044:	e7d32002 	ldrb	r2, [r3, r2]
    a048:	e51b300c 	ldr	r3, [fp, #-12]
    a04c:	e5c32000 	strb	r2, [r3]
    a050:	e51b300c 	ldr	r3, [fp, #-12]
    a054:	e2833001 	add	r3, r3, #1	; 0x1
    a058:	e50b300c 	str	r3, [fp, #-12]
    a05c:	e51b3008 	ldr	r3, [fp, #-8]
    a060:	e2833002 	add	r3, r3, #2	; 0x2
    a064:	e51b2014 	ldr	r2, [fp, #-20]
    a068:	e0823003 	add	r3, r2, r3
    a06c:	e5d33000 	ldrb	r3, [r3]
    a070:	e203203f 	and	r2, r3, #63	; 0x3f
    a074:	e59f31e8 	ldr	r3, [pc, #488]	; a264 <Base64encode+0x324>
    a078:	e08f3003 	add	r3, pc, r3
    a07c:	e7d32002 	ldrb	r2, [r3, r2]
    a080:	e51b300c 	ldr	r3, [fp, #-12]
    a084:	e5c32000 	strb	r2, [r3]
    a088:	e51b300c 	ldr	r3, [fp, #-12]
    a08c:	e2833001 	add	r3, r3, #1	; 0x1
    a090:	e50b300c 	str	r3, [fp, #-12]
    a094:	e51b3008 	ldr	r3, [fp, #-8]
    a098:	e2833003 	add	r3, r3, #3	; 0x3
    a09c:	e50b3008 	str	r3, [fp, #-8]
    a0a0:	e51b3018 	ldr	r3, [fp, #-24]
    a0a4:	e2432002 	sub	r2, r3, #2	; 0x2
    a0a8:	e51b3008 	ldr	r3, [fp, #-8]
    a0ac:	e1520003 	cmp	r2, r3
    a0b0:	d3a03000 	movle	r3, #0	; 0x0
    a0b4:	c3a03001 	movgt	r3, #1	; 0x1
    a0b8:	e20330ff 	and	r3, r3, #255	; 0xff
    a0bc:	e3530000 	cmp	r3, #0	; 0x0
    a0c0:	1affffa9 	bne	9f6c <Base64encode+0x2c>
    a0c4:	e51b2008 	ldr	r2, [fp, #-8]
    a0c8:	e51b3018 	ldr	r3, [fp, #-24]
    a0cc:	e1520003 	cmp	r2, r3
    a0d0:	aa000053 	bge	a224 <Base64encode+0x2e4>
    a0d4:	e51b3008 	ldr	r3, [fp, #-8]
    a0d8:	e51b2014 	ldr	r2, [fp, #-20]
    a0dc:	e0823003 	add	r3, r2, r3
    a0e0:	e5d33000 	ldrb	r3, [r3]
    a0e4:	e1a03123 	lsr	r3, r3, #2
    a0e8:	e20330ff 	and	r3, r3, #255	; 0xff
    a0ec:	e1a02003 	mov	r2, r3
    a0f0:	e59f3170 	ldr	r3, [pc, #368]	; a268 <Base64encode+0x328>
    a0f4:	e08f3003 	add	r3, pc, r3
    a0f8:	e7d32002 	ldrb	r2, [r3, r2]
    a0fc:	e51b300c 	ldr	r3, [fp, #-12]
    a100:	e5c32000 	strb	r2, [r3]
    a104:	e51b300c 	ldr	r3, [fp, #-12]
    a108:	e2833001 	add	r3, r3, #1	; 0x1
    a10c:	e50b300c 	str	r3, [fp, #-12]
    a110:	e51b3018 	ldr	r3, [fp, #-24]
    a114:	e2432001 	sub	r2, r3, #1	; 0x1
    a118:	e51b3008 	ldr	r3, [fp, #-8]
    a11c:	e1520003 	cmp	r2, r3
    a120:	1a000014 	bne	a178 <Base64encode+0x238>
    a124:	e51b3008 	ldr	r3, [fp, #-8]
    a128:	e51b2014 	ldr	r2, [fp, #-20]
    a12c:	e0823003 	add	r3, r2, r3
    a130:	e5d33000 	ldrb	r3, [r3]
    a134:	e2033003 	and	r3, r3, #3	; 0x3
    a138:	e1a02203 	lsl	r2, r3, #4
    a13c:	e59f3128 	ldr	r3, [pc, #296]	; a26c <Base64encode+0x32c>
    a140:	e08f3003 	add	r3, pc, r3
    a144:	e7d32002 	ldrb	r2, [r3, r2]
    a148:	e51b300c 	ldr	r3, [fp, #-12]
    a14c:	e5c32000 	strb	r2, [r3]
    a150:	e51b300c 	ldr	r3, [fp, #-12]
    a154:	e2833001 	add	r3, r3, #1	; 0x1
    a158:	e50b300c 	str	r3, [fp, #-12]
    a15c:	e51b300c 	ldr	r3, [fp, #-12]
    a160:	e3a0203d 	mov	r2, #61	; 0x3d
    a164:	e5c32000 	strb	r2, [r3]
    a168:	e51b300c 	ldr	r3, [fp, #-12]
    a16c:	e2833001 	add	r3, r3, #1	; 0x1
    a170:	e50b300c 	str	r3, [fp, #-12]
    a174:	ea000024 	b	a20c <Base64encode+0x2cc>
    a178:	e51b3008 	ldr	r3, [fp, #-8]
    a17c:	e51b2014 	ldr	r2, [fp, #-20]
    a180:	e0823003 	add	r3, r2, r3
    a184:	e5d33000 	ldrb	r3, [r3]
    a188:	e2033003 	and	r3, r3, #3	; 0x3
    a18c:	e1a02203 	lsl	r2, r3, #4
    a190:	e51b3008 	ldr	r3, [fp, #-8]
    a194:	e2833001 	add	r3, r3, #1	; 0x1
    a198:	e51b1014 	ldr	r1, [fp, #-20]
    a19c:	e0813003 	add	r3, r1, r3
    a1a0:	e5d33000 	ldrb	r3, [r3]
    a1a4:	e1a03223 	lsr	r3, r3, #4
    a1a8:	e20330ff 	and	r3, r3, #255	; 0xff
    a1ac:	e1822003 	orr	r2, r2, r3
    a1b0:	e59f30b8 	ldr	r3, [pc, #184]	; a270 <Base64encode+0x330>
    a1b4:	e08f3003 	add	r3, pc, r3
    a1b8:	e7d32002 	ldrb	r2, [r3, r2]
    a1bc:	e51b300c 	ldr	r3, [fp, #-12]
    a1c0:	e5c32000 	strb	r2, [r3]
    a1c4:	e51b300c 	ldr	r3, [fp, #-12]
    a1c8:	e2833001 	add	r3, r3, #1	; 0x1
    a1cc:	e50b300c 	str	r3, [fp, #-12]
    a1d0:	e51b3008 	ldr	r3, [fp, #-8]
    a1d4:	e2833001 	add	r3, r3, #1	; 0x1
    a1d8:	e51b2014 	ldr	r2, [fp, #-20]
    a1dc:	e0823003 	add	r3, r2, r3
    a1e0:	e5d33000 	ldrb	r3, [r3]
    a1e4:	e203300f 	and	r3, r3, #15	; 0xf
    a1e8:	e1a02103 	lsl	r2, r3, #2
    a1ec:	e59f3080 	ldr	r3, [pc, #128]	; a274 <Base64encode+0x334>
    a1f0:	e08f3003 	add	r3, pc, r3
    a1f4:	e7d32002 	ldrb	r2, [r3, r2]
    a1f8:	e51b300c 	ldr	r3, [fp, #-12]
    a1fc:	e5c32000 	strb	r2, [r3]
    a200:	e51b300c 	ldr	r3, [fp, #-12]
    a204:	e2833001 	add	r3, r3, #1	; 0x1
    a208:	e50b300c 	str	r3, [fp, #-12]
    a20c:	e51b300c 	ldr	r3, [fp, #-12]
    a210:	e3a0203d 	mov	r2, #61	; 0x3d
    a214:	e5c32000 	strb	r2, [r3]
    a218:	e51b300c 	ldr	r3, [fp, #-12]
    a21c:	e2833001 	add	r3, r3, #1	; 0x1
    a220:	e50b300c 	str	r3, [fp, #-12]
    a224:	e51b300c 	ldr	r3, [fp, #-12]
    a228:	e3a02000 	mov	r2, #0	; 0x0
    a22c:	e5c32000 	strb	r2, [r3]
    a230:	e51b300c 	ldr	r3, [fp, #-12]
    a234:	e2833001 	add	r3, r3, #1	; 0x1
    a238:	e50b300c 	str	r3, [fp, #-12]
    a23c:	e51b200c 	ldr	r2, [fp, #-12]
    a240:	e51b3010 	ldr	r3, [fp, #-16]
    a244:	e0633002 	rsb	r3, r3, r2
    a248:	e1a00003 	mov	r0, r3
    a24c:	e28bd000 	add	sp, fp, #0	; 0x0
    a250:	e8bd0800 	pop	{fp}
    a254:	e12fff1e 	bx	lr
    a258:	0001c9bc 	.word	0x0001c9bc
    a25c:	0001c964 	.word	0x0001c964
    a260:	0001c908 	.word	0x0001c908
    a264:	0001c8d0 	.word	0x0001c8d0
    a268:	0001c854 	.word	0x0001c854
    a26c:	0001c808 	.word	0x0001c808
    a270:	0001c794 	.word	0x0001c794
    a274:	0001c758 	.word	0x0001c758

0000a278 <_Z15ilbase64_decodePcPKc>:
    a278:	e92d4800 	push	{fp, lr}
    a27c:	e28db004 	add	fp, sp, #4	; 0x4
    a280:	e24dd028 	sub	sp, sp, #40	; 0x28
    a284:	e50b0028 	str	r0, [fp, #-40]
    a288:	e50b102c 	str	r1, [fp, #-44]
    a28c:	e3e03000 	mvn	r3, #0	; 0x0
    a290:	e50b3010 	str	r3, [fp, #-16]
    a294:	e3a03000 	mov	r3, #0	; 0x0
    a298:	e50b3014 	str	r3, [fp, #-20]
    a29c:	e51b302c 	ldr	r3, [fp, #-44]
    a2a0:	e50b3018 	str	r3, [fp, #-24]
    a2a4:	e3a03000 	mov	r3, #0	; 0x0
    a2a8:	e50b301c 	str	r3, [fp, #-28]
    a2ac:	e3a03c02 	mov	r3, #512	; 0x200
    a2b0:	e50b3020 	str	r3, [fp, #-32]
    a2b4:	e51b302c 	ldr	r3, [fp, #-44]
    a2b8:	e3530000 	cmp	r3, #0	; 0x0
    a2bc:	0a000002 	beq	a2cc <_Z15ilbase64_decodePcPKc+0x54>
    a2c0:	e51b3028 	ldr	r3, [fp, #-40]
    a2c4:	e3530000 	cmp	r3, #0	; 0x0
    a2c8:	1a000001 	bne	a2d4 <_Z15ilbase64_decodePcPKc+0x5c>
    a2cc:	e51b3010 	ldr	r3, [fp, #-16]
    a2d0:	ea000063 	b	a464 <_Z15ilbase64_decodePcPKc+0x1ec>
    a2d4:	e51b3020 	ldr	r3, [fp, #-32]
    a2d8:	e1a00003 	mov	r0, r3
    a2dc:	ebfffd19 	bl	9748 <malloc@plt>
    a2e0:	e1a03000 	mov	r3, r0
    a2e4:	e50b3014 	str	r3, [fp, #-20]
    a2e8:	e51b3014 	ldr	r3, [fp, #-20]
    a2ec:	e3530000 	cmp	r3, #0	; 0x0
    a2f0:	1a000001 	bne	a2fc <_Z15ilbase64_decodePcPKc+0x84>
    a2f4:	e51b3010 	ldr	r3, [fp, #-16]
    a2f8:	ea000059 	b	a464 <_Z15ilbase64_decodePcPKc+0x1ec>
    a2fc:	e51b3020 	ldr	r3, [fp, #-32]
    a300:	e51b2014 	ldr	r2, [fp, #-20]
    a304:	e1a00002 	mov	r0, r2
    a308:	e3a01000 	mov	r1, #0	; 0x0
    a30c:	e1a02003 	mov	r2, r3
    a310:	ebfffd0f 	bl	9754 <memset@plt>
    a314:	e51b0014 	ldr	r0, [fp, #-20]
    a318:	e51b102c 	ldr	r1, [fp, #-44]
    a31c:	ebfffe2f 	bl	9be0 <Base64decode>
    a320:	e1a03000 	mov	r3, r0
    a324:	e50b3010 	str	r3, [fp, #-16]
    a328:	e51b3020 	ldr	r3, [fp, #-32]
    a32c:	e51b1028 	ldr	r1, [fp, #-40]
    a330:	e51b2014 	ldr	r2, [fp, #-20]
    a334:	e1a00001 	mov	r0, r1
    a338:	e1a01002 	mov	r1, r2
    a33c:	e1a02003 	mov	r2, r3
    a340:	ebfffd06 	bl	9760 <memcpy@plt>
    a344:	e51b0014 	ldr	r0, [fp, #-20]
    a348:	ebfffd07 	bl	976c <strlen@plt>
    a34c:	e1a03000 	mov	r3, r0
    a350:	e1a030a3 	lsr	r3, r3, #1
    a354:	e50b301c 	str	r3, [fp, #-28]
    a358:	e3a03001 	mov	r3, #1	; 0x1
    a35c:	e50b3008 	str	r3, [fp, #-8]
    a360:	e3a03000 	mov	r3, #0	; 0x0
    a364:	e50b300c 	str	r3, [fp, #-12]
    a368:	ea00001b 	b	a3dc <_Z15ilbase64_decodePcPKc+0x164>
    a36c:	e51b3008 	ldr	r3, [fp, #-8]
    a370:	e51b2028 	ldr	r2, [fp, #-40]
    a374:	e0823003 	add	r3, r2, r3
    a378:	e51b2008 	ldr	r2, [fp, #-8]
    a37c:	e1a02082 	lsl	r2, r2, #1
    a380:	e51b1014 	ldr	r1, [fp, #-20]
    a384:	e0812002 	add	r2, r1, r2
    a388:	e5d22000 	ldrb	r2, [r2]
    a38c:	e5c32000 	strb	r2, [r3]
    a390:	e51b201c 	ldr	r2, [fp, #-28]
    a394:	e51b3008 	ldr	r3, [fp, #-8]
    a398:	e0823003 	add	r3, r2, r3
    a39c:	e2433001 	sub	r3, r3, #1	; 0x1
    a3a0:	e51b2028 	ldr	r2, [fp, #-40]
    a3a4:	e0823003 	add	r3, r2, r3
    a3a8:	e51b1008 	ldr	r1, [fp, #-8]
    a3ac:	e51b200c 	ldr	r2, [fp, #-12]
    a3b0:	e0812002 	add	r2, r1, r2
    a3b4:	e51b1014 	ldr	r1, [fp, #-20]
    a3b8:	e0812002 	add	r2, r1, r2
    a3bc:	e5d22000 	ldrb	r2, [r2]
    a3c0:	e5c32000 	strb	r2, [r3]
    a3c4:	e51b3008 	ldr	r3, [fp, #-8]
    a3c8:	e2833001 	add	r3, r3, #1	; 0x1
    a3cc:	e50b3008 	str	r3, [fp, #-8]
    a3d0:	e51b300c 	ldr	r3, [fp, #-12]
    a3d4:	e2833001 	add	r3, r3, #1	; 0x1
    a3d8:	e50b300c 	str	r3, [fp, #-12]
    a3dc:	e51b2008 	ldr	r2, [fp, #-8]
    a3e0:	e51b301c 	ldr	r3, [fp, #-28]
    a3e4:	e1520003 	cmp	r2, r3
    a3e8:	a3a03000 	movge	r3, #0	; 0x0
    a3ec:	b3a03001 	movlt	r3, #1	; 0x1
    a3f0:	e20330ff 	and	r3, r3, #255	; 0xff
    a3f4:	e3530000 	cmp	r3, #0	; 0x0
    a3f8:	1affffdb 	bne	a36c <_Z15ilbase64_decodePcPKc+0xf4>
    a3fc:	e51b3020 	ldr	r3, [fp, #-32]
    a400:	e2033001 	and	r3, r3, #1	; 0x1
    a404:	e20330ff 	and	r3, r3, #255	; 0xff
    a408:	e3530000 	cmp	r3, #0	; 0x0
    a40c:	0a000009 	beq	a438 <_Z15ilbase64_decodePcPKc+0x1c0>
    a410:	e51b3020 	ldr	r3, [fp, #-32]
    a414:	e2433001 	sub	r3, r3, #1	; 0x1
    a418:	e51b2014 	ldr	r2, [fp, #-20]
    a41c:	e0823003 	add	r3, r2, r3
    a420:	e51b2020 	ldr	r2, [fp, #-32]
    a424:	e2422001 	sub	r2, r2, #1	; 0x1
    a428:	e51b1018 	ldr	r1, [fp, #-24]
    a42c:	e0812002 	add	r2, r1, r2
    a430:	e5d22000 	ldrb	r2, [r2]
    a434:	e5c32000 	strb	r2, [r3]
    a438:	e51b3020 	ldr	r3, [fp, #-32]
    a43c:	e51b2014 	ldr	r2, [fp, #-20]
    a440:	e0823003 	add	r3, r2, r3
    a444:	e3a02000 	mov	r2, #0	; 0x0
    a448:	e5c32000 	strb	r2, [r3]
    a44c:	e51b3014 	ldr	r3, [fp, #-20]
    a450:	e3530000 	cmp	r3, #0	; 0x0
    a454:	0a000001 	beq	a460 <_Z15ilbase64_decodePcPKc+0x1e8>
    a458:	e51b0014 	ldr	r0, [fp, #-20]
    a45c:	ebfffcc5 	bl	9778 <free@plt>
    a460:	e51b3010 	ldr	r3, [fp, #-16]
    a464:	e1a00003 	mov	r0, r3
    a468:	e24bd004 	sub	sp, fp, #4	; 0x4
    a46c:	e8bd8800 	pop	{fp, pc}

0000a470 <_Z15ilbase64_encodePcPKcj>:
    a470:	e92d4800 	push	{fp, lr}
    a474:	e28db004 	add	fp, sp, #4	; 0x4
    a478:	e24dd028 	sub	sp, sp, #40	; 0x28
    a47c:	e50b0020 	str	r0, [fp, #-32]
    a480:	e50b1024 	str	r1, [fp, #-36]
    a484:	e50b2028 	str	r2, [fp, #-40]
    a488:	e3e03000 	mvn	r3, #0	; 0x0
    a48c:	e50b3010 	str	r3, [fp, #-16]
    a490:	e51b3024 	ldr	r3, [fp, #-36]
    a494:	e50b3014 	str	r3, [fp, #-20]
    a498:	e3a03000 	mov	r3, #0	; 0x0
    a49c:	e50b3018 	str	r3, [fp, #-24]
    a4a0:	e51b3028 	ldr	r3, [fp, #-40]
    a4a4:	e1a030a3 	lsr	r3, r3, #1
    a4a8:	e50b301c 	str	r3, [fp, #-28]
    a4ac:	e51b3024 	ldr	r3, [fp, #-36]
    a4b0:	e3530000 	cmp	r3, #0	; 0x0
    a4b4:	0a000002 	beq	a4c4 <_Z15ilbase64_encodePcPKcj+0x54>
    a4b8:	e51b3020 	ldr	r3, [fp, #-32]
    a4bc:	e3530000 	cmp	r3, #0	; 0x0
    a4c0:	1a000001 	bne	a4cc <_Z15ilbase64_encodePcPKcj+0x5c>
    a4c4:	e51b3010 	ldr	r3, [fp, #-16]
    a4c8:	ea000062 	b	a658 <_Z15ilbase64_encodePcPKcj+0x1e8>
    a4cc:	e51b0028 	ldr	r0, [fp, #-40]
    a4d0:	ebfffc9c 	bl	9748 <malloc@plt>
    a4d4:	e1a03000 	mov	r3, r0
    a4d8:	e50b3018 	str	r3, [fp, #-24]
    a4dc:	e51b3018 	ldr	r3, [fp, #-24]
    a4e0:	e3530000 	cmp	r3, #0	; 0x0
    a4e4:	1a000001 	bne	a4f0 <_Z15ilbase64_encodePcPKcj+0x80>
    a4e8:	e51b3010 	ldr	r3, [fp, #-16]
    a4ec:	ea000059 	b	a658 <_Z15ilbase64_encodePcPKcj+0x1e8>
    a4f0:	e51b3018 	ldr	r3, [fp, #-24]
    a4f4:	e1a02003 	mov	r2, r3
    a4f8:	e51b3028 	ldr	r3, [fp, #-40]
    a4fc:	e1a00002 	mov	r0, r2
    a500:	e3a01000 	mov	r1, #0	; 0x0
    a504:	e1a02003 	mov	r2, r3
    a508:	ebfffc91 	bl	9754 <memset@plt>
    a50c:	e51b2018 	ldr	r2, [fp, #-24]
    a510:	e51b3024 	ldr	r3, [fp, #-36]
    a514:	e1a01002 	mov	r1, r2
    a518:	e1a02003 	mov	r2, r3
    a51c:	e51b3028 	ldr	r3, [fp, #-40]
    a520:	e1a00001 	mov	r0, r1
    a524:	e1a01002 	mov	r1, r2
    a528:	e1a02003 	mov	r2, r3
    a52c:	ebfffc8b 	bl	9760 <memcpy@plt>
    a530:	e3a03000 	mov	r3, #0	; 0x0
    a534:	e50b3008 	str	r3, [fp, #-8]
    a538:	e3a03001 	mov	r3, #1	; 0x1
    a53c:	e50b300c 	str	r3, [fp, #-12]
    a540:	ea00001b 	b	a5b4 <_Z15ilbase64_encodePcPKcj+0x144>
    a544:	e51b300c 	ldr	r3, [fp, #-12]
    a548:	e51b2018 	ldr	r2, [fp, #-24]
    a54c:	e0823003 	add	r3, r2, r3
    a550:	e51b101c 	ldr	r1, [fp, #-28]
    a554:	e51b2008 	ldr	r2, [fp, #-8]
    a558:	e0812002 	add	r2, r1, r2
    a55c:	e51b1014 	ldr	r1, [fp, #-20]
    a560:	e0812002 	add	r2, r1, r2
    a564:	e5d22000 	ldrb	r2, [r2]
    a568:	e5c32000 	strb	r2, [r3]
    a56c:	e51b300c 	ldr	r3, [fp, #-12]
    a570:	e2833001 	add	r3, r3, #1	; 0x1
    a574:	e50b300c 	str	r3, [fp, #-12]
    a578:	e51b300c 	ldr	r3, [fp, #-12]
    a57c:	e51b2018 	ldr	r2, [fp, #-24]
    a580:	e0823003 	add	r3, r2, r3
    a584:	e51b2008 	ldr	r2, [fp, #-8]
    a588:	e2822001 	add	r2, r2, #1	; 0x1
    a58c:	e51b1014 	ldr	r1, [fp, #-20]
    a590:	e0812002 	add	r2, r1, r2
    a594:	e5d22000 	ldrb	r2, [r2]
    a598:	e5c32000 	strb	r2, [r3]
    a59c:	e51b3008 	ldr	r3, [fp, #-8]
    a5a0:	e2833001 	add	r3, r3, #1	; 0x1
    a5a4:	e50b3008 	str	r3, [fp, #-8]
    a5a8:	e51b300c 	ldr	r3, [fp, #-12]
    a5ac:	e2833001 	add	r3, r3, #1	; 0x1
    a5b0:	e50b300c 	str	r3, [fp, #-12]
    a5b4:	e51b2008 	ldr	r2, [fp, #-8]
    a5b8:	e51b301c 	ldr	r3, [fp, #-28]
    a5bc:	e1520003 	cmp	r2, r3
    a5c0:	a3a03000 	movge	r3, #0	; 0x0
    a5c4:	b3a03001 	movlt	r3, #1	; 0x1
    a5c8:	e20330ff 	and	r3, r3, #255	; 0xff
    a5cc:	e3530000 	cmp	r3, #0	; 0x0
    a5d0:	1affffdb 	bne	a544 <_Z15ilbase64_encodePcPKcj+0xd4>
    a5d4:	e51b3028 	ldr	r3, [fp, #-40]
    a5d8:	e2033001 	and	r3, r3, #1	; 0x1
    a5dc:	e20330ff 	and	r3, r3, #255	; 0xff
    a5e0:	e3530000 	cmp	r3, #0	; 0x0
    a5e4:	0a000009 	beq	a610 <_Z15ilbase64_encodePcPKcj+0x1a0>
    a5e8:	e51b3028 	ldr	r3, [fp, #-40]
    a5ec:	e2433001 	sub	r3, r3, #1	; 0x1
    a5f0:	e51b2018 	ldr	r2, [fp, #-24]
    a5f4:	e0823003 	add	r3, r2, r3
    a5f8:	e51b2028 	ldr	r2, [fp, #-40]
    a5fc:	e2422001 	sub	r2, r2, #1	; 0x1
    a600:	e51b1014 	ldr	r1, [fp, #-20]
    a604:	e0812002 	add	r2, r1, r2
    a608:	e5d22000 	ldrb	r2, [r2]
    a60c:	e5c32000 	strb	r2, [r3]
    a610:	e51b2018 	ldr	r2, [fp, #-24]
    a614:	e51b3028 	ldr	r3, [fp, #-40]
    a618:	e0823003 	add	r3, r2, r3
    a61c:	e3a02000 	mov	r2, #0	; 0x0
    a620:	e5c32000 	strb	r2, [r3]
    a624:	e51b3028 	ldr	r3, [fp, #-40]
    a628:	e51b0020 	ldr	r0, [fp, #-32]
    a62c:	e51b1018 	ldr	r1, [fp, #-24]
    a630:	e1a02003 	mov	r2, r3
    a634:	ebfffe41 	bl	9f40 <Base64encode>
    a638:	e1a03000 	mov	r3, r0
    a63c:	e50b3010 	str	r3, [fp, #-16]
    a640:	e51b3018 	ldr	r3, [fp, #-24]
    a644:	e3530000 	cmp	r3, #0	; 0x0
    a648:	0a000001 	beq	a654 <_Z15ilbase64_encodePcPKcj+0x1e4>
    a64c:	e51b0018 	ldr	r0, [fp, #-24]
    a650:	ebfffc48 	bl	9778 <free@plt>
    a654:	e51b3010 	ldr	r3, [fp, #-16]
    a658:	e1a00003 	mov	r0, r3
    a65c:	e24bd004 	sub	sp, fp, #4	; 0x4
    a660:	e8bd8800 	pop	{fp, pc}

0000a664 <_ZN5ilistC1Ev>:
    a664:	e52db004 	push	{fp}		; (str fp, [sp, #-4]!)
    a668:	e28db000 	add	fp, sp, #0	; 0x0
    a66c:	e24dd00c 	sub	sp, sp, #12	; 0xc
    a670:	e50b0008 	str	r0, [fp, #-8]
    a674:	e51b3008 	ldr	r3, [fp, #-8]
    a678:	e3a02000 	mov	r2, #0	; 0x0
    a67c:	e5832000 	str	r2, [r3]
    a680:	e51b3008 	ldr	r3, [fp, #-8]
    a684:	e3a02000 	mov	r2, #0	; 0x0
    a688:	e5832004 	str	r2, [r3, #4]
    a68c:	e51b3008 	ldr	r3, [fp, #-8]
    a690:	e1a00003 	mov	r0, r3
    a694:	e28bd000 	add	sp, fp, #0	; 0x0
    a698:	e8bd0800 	pop	{fp}
    a69c:	e12fff1e 	bx	lr

0000a6a0 <_ZN5ilistD1Ev>:
    a6a0:	e52db004 	push	{fp}		; (str fp, [sp, #-4]!)
    a6a4:	e28db000 	add	fp, sp, #0	; 0x0
    a6a8:	e24dd00c 	sub	sp, sp, #12	; 0xc
    a6ac:	e50b0008 	str	r0, [fp, #-8]
    a6b0:	e51b3008 	ldr	r3, [fp, #-8]
    a6b4:	e1a00003 	mov	r0, r3
    a6b8:	e28bd000 	add	sp, fp, #0	; 0x0
    a6bc:	e8bd0800 	pop	{fp}
    a6c0:	e12fff1e 	bx	lr

0000a6c4 <_ZN5ilist3getEv>:
    a6c4:	e52db004 	push	{fp}		; (str fp, [sp, #-4]!)
    a6c8:	e28db000 	add	fp, sp, #0	; 0x0
    a6cc:	e24dd00c 	sub	sp, sp, #12	; 0xc
    a6d0:	e50b0008 	str	r0, [fp, #-8]
    a6d4:	e51b3008 	ldr	r3, [fp, #-8]
    a6d8:	e5933000 	ldr	r3, [r3]
    a6dc:	e1a00003 	mov	r0, r3
    a6e0:	e28bd000 	add	sp, fp, #0	; 0x0
    a6e4:	e8bd0800 	pop	{fp}
    a6e8:	e12fff1e 	bx	lr

0000a6ec <_ZN5ilist9push_backEj>:
    a6ec:	e92d4800 	push	{fp, lr}
    a6f0:	e28db004 	add	fp, sp, #4	; 0x4
    a6f4:	e24dd010 	sub	sp, sp, #16	; 0x10
    a6f8:	e50b0010 	str	r0, [fp, #-16]
    a6fc:	e50b1014 	str	r1, [fp, #-20]
    a700:	e3a03000 	mov	r3, #0	; 0x0
    a704:	e50b300c 	str	r3, [fp, #-12]
    a708:	e3a03000 	mov	r3, #0	; 0x0
    a70c:	e50b3008 	str	r3, [fp, #-8]
    a710:	e3a00008 	mov	r0, #8	; 0x8
    a714:	ebfffc0b 	bl	9748 <malloc@plt>
    a718:	e1a03000 	mov	r3, r0
    a71c:	e50b300c 	str	r3, [fp, #-12]
    a720:	e51b300c 	ldr	r3, [fp, #-12]
    a724:	e51b2014 	ldr	r2, [fp, #-20]
    a728:	e5832004 	str	r2, [r3, #4]
    a72c:	e51b300c 	ldr	r3, [fp, #-12]
    a730:	e3a02000 	mov	r2, #0	; 0x0
    a734:	e5832000 	str	r2, [r3]
    a738:	e51b3010 	ldr	r3, [fp, #-16]
    a73c:	e5933000 	ldr	r3, [r3]
    a740:	e3530000 	cmp	r3, #0	; 0x0
    a744:	1a000009 	bne	a770 <_ZN5ilist9push_backEj+0x84>
    a748:	e51b3010 	ldr	r3, [fp, #-16]
    a74c:	e51b200c 	ldr	r2, [fp, #-12]
    a750:	e5832000 	str	r2, [r3]
    a754:	e51b3010 	ldr	r3, [fp, #-16]
    a758:	e5932004 	ldr	r2, [r3, #4]
    a75c:	e1a03002 	mov	r3, r2
    a760:	e2821001 	add	r1, r2, #1	; 0x1
    a764:	e51b2010 	ldr	r2, [fp, #-16]
    a768:	e5821004 	str	r1, [r2, #4]
    a76c:	ea000017 	b	a7d0 <_ZN5ilist9push_backEj+0xe4>
    a770:	e51b3010 	ldr	r3, [fp, #-16]
    a774:	e5933000 	ldr	r3, [r3]
    a778:	e50b3008 	str	r3, [fp, #-8]
    a77c:	ea000002 	b	a78c <_ZN5ilist9push_backEj+0xa0>
    a780:	e51b3008 	ldr	r3, [fp, #-8]
    a784:	e5933000 	ldr	r3, [r3]
    a788:	e50b3008 	str	r3, [fp, #-8]
    a78c:	e51b3008 	ldr	r3, [fp, #-8]
    a790:	e5933000 	ldr	r3, [r3]
    a794:	e3530000 	cmp	r3, #0	; 0x0
    a798:	03a03000 	moveq	r3, #0	; 0x0
    a79c:	13a03001 	movne	r3, #1	; 0x1
    a7a0:	e20330ff 	and	r3, r3, #255	; 0xff
    a7a4:	e3530000 	cmp	r3, #0	; 0x0
    a7a8:	1afffff4 	bne	a780 <_ZN5ilist9push_backEj+0x94>
    a7ac:	e51b3008 	ldr	r3, [fp, #-8]
    a7b0:	e51b200c 	ldr	r2, [fp, #-12]
    a7b4:	e5832000 	str	r2, [r3]
    a7b8:	e51b3010 	ldr	r3, [fp, #-16]
    a7bc:	e5932004 	ldr	r2, [r3, #4]
    a7c0:	e1a03002 	mov	r3, r2
    a7c4:	e2821001 	add	r1, r2, #1	; 0x1
    a7c8:	e51b2010 	ldr	r2, [fp, #-16]
    a7cc:	e5821004 	str	r1, [r2, #4]
    a7d0:	e1a00003 	mov	r0, r3
    a7d4:	e24bd004 	sub	sp, fp, #4	; 0x4
    a7d8:	e8bd8800 	pop	{fp, pc}

0000a7dc <_ZN5ilist5clearEv>:
    a7dc:	e92d4800 	push	{fp, lr}
    a7e0:	e28db004 	add	fp, sp, #4	; 0x4
    a7e4:	e24dd010 	sub	sp, sp, #16	; 0x10
    a7e8:	e50b0010 	str	r0, [fp, #-16]
    a7ec:	e3a03000 	mov	r3, #0	; 0x0
    a7f0:	e50b3008 	str	r3, [fp, #-8]
    a7f4:	e3a03000 	mov	r3, #0	; 0x0
    a7f8:	e50b300c 	str	r3, [fp, #-12]
    a7fc:	e51b3010 	ldr	r3, [fp, #-16]
    a800:	e5933000 	ldr	r3, [r3]
    a804:	e50b3008 	str	r3, [fp, #-8]
    a808:	ea00000d 	b	a844 <_ZN5ilist5clearEv+0x68>
    a80c:	e51b3008 	ldr	r3, [fp, #-8]
    a810:	e50b300c 	str	r3, [fp, #-12]
    a814:	e51b3008 	ldr	r3, [fp, #-8]
    a818:	e5933000 	ldr	r3, [r3]
    a81c:	e50b3008 	str	r3, [fp, #-8]
    a820:	e51b000c 	ldr	r0, [fp, #-12]
    a824:	ebfffbd3 	bl	9778 <free@plt>
    a828:	e3a03000 	mov	r3, #0	; 0x0
    a82c:	e50b300c 	str	r3, [fp, #-12]
    a830:	e51b3010 	ldr	r3, [fp, #-16]
    a834:	e5933004 	ldr	r3, [r3, #4]
    a838:	e2432001 	sub	r2, r3, #1	; 0x1
    a83c:	e51b3010 	ldr	r3, [fp, #-16]
    a840:	e5832004 	str	r2, [r3, #4]
    a844:	e51b3008 	ldr	r3, [fp, #-8]
    a848:	e3530000 	cmp	r3, #0	; 0x0
    a84c:	03a03000 	moveq	r3, #0	; 0x0
    a850:	13a03001 	movne	r3, #1	; 0x1
    a854:	e20330ff 	and	r3, r3, #255	; 0xff
    a858:	e3530000 	cmp	r3, #0	; 0x0
    a85c:	1affffea 	bne	a80c <_ZN5ilist5clearEv+0x30>
    a860:	e51b3010 	ldr	r3, [fp, #-16]
    a864:	e5933004 	ldr	r3, [r3, #4]
    a868:	e1a00003 	mov	r0, r3
    a86c:	e24bd004 	sub	sp, fp, #4	; 0x4
    a870:	e8bd8800 	pop	{fp, pc}

0000a874 <_ZN5ilist5hasitEj>:
    a874:	e52db004 	push	{fp}		; (str fp, [sp, #-4]!)
    a878:	e28db000 	add	fp, sp, #0	; 0x0
    a87c:	e24dd014 	sub	sp, sp, #20	; 0x14
    a880:	e50b0010 	str	r0, [fp, #-16]
    a884:	e50b1014 	str	r1, [fp, #-20]
    a888:	e3a03000 	mov	r3, #0	; 0x0
    a88c:	e50b3008 	str	r3, [fp, #-8]
    a890:	e51b3010 	ldr	r3, [fp, #-16]
    a894:	e5933000 	ldr	r3, [r3]
    a898:	e50b3008 	str	r3, [fp, #-8]
    a89c:	ea000009 	b	a8c8 <_ZN5ilist5hasitEj+0x54>
    a8a0:	e51b3008 	ldr	r3, [fp, #-8]
    a8a4:	e5932004 	ldr	r2, [r3, #4]
    a8a8:	e51b3014 	ldr	r3, [fp, #-20]
    a8ac:	e1520003 	cmp	r2, r3
    a8b0:	1a000001 	bne	a8bc <_ZN5ilist5hasitEj+0x48>
    a8b4:	e3a03001 	mov	r3, #1	; 0x1
    a8b8:	ea00000a 	b	a8e8 <_ZN5ilist5hasitEj+0x74>
    a8bc:	e51b3008 	ldr	r3, [fp, #-8]
    a8c0:	e5933000 	ldr	r3, [r3]
    a8c4:	e50b3008 	str	r3, [fp, #-8]
    a8c8:	e51b3008 	ldr	r3, [fp, #-8]
    a8cc:	e3530000 	cmp	r3, #0	; 0x0
    a8d0:	03a03000 	moveq	r3, #0	; 0x0
    a8d4:	13a03001 	movne	r3, #1	; 0x1
    a8d8:	e20330ff 	and	r3, r3, #255	; 0xff
    a8dc:	e3530000 	cmp	r3, #0	; 0x0
    a8e0:	1affffee 	bne	a8a0 <_ZN5ilist5hasitEj+0x2c>
    a8e4:	e3a03000 	mov	r3, #0	; 0x0
    a8e8:	e1a00003 	mov	r0, r3
    a8ec:	e28bd000 	add	sp, fp, #0	; 0x0
    a8f0:	e8bd0800 	pop	{fp}
    a8f4:	e12fff1e 	bx	lr

0000a8f8 <_Z8hashcodePvj>:
    a8f8:	e92d4800 	push	{fp, lr}
    a8fc:	e28db004 	add	fp, sp, #4	; 0x4
    a900:	e24dd010 	sub	sp, sp, #16	; 0x10
    a904:	e50b0010 	str	r0, [fp, #-16]
    a908:	e50b1014 	str	r1, [fp, #-20]
    a90c:	e3a03000 	mov	r3, #0	; 0x0
    a910:	e50b3008 	str	r3, [fp, #-8]
    a914:	e3a03004 	mov	r3, #4	; 0x4
    a918:	e50b300c 	str	r3, [fp, #-12]
    a91c:	e51b1014 	ldr	r1, [fp, #-20]
    a920:	e24b2008 	sub	r2, fp, #8	; 0x8
    a924:	e24b300c 	sub	r3, fp, #12	; 0xc
    a928:	e51b0010 	ldr	r0, [fp, #-16]
    a92c:	eb003cf3 	bl	19d00 <tdog_cipher_hash>
    a930:	e51b3008 	ldr	r3, [fp, #-8]
    a934:	e1a00003 	mov	r0, r3
    a938:	e24bd004 	sub	sp, fp, #4	; 0x4
    a93c:	e8bd8800 	pop	{fp, pc}

0000a940 <_Z20ilsecfunc_check_hashjjj>:
    a940:	e92d4810 	push	{r4, fp, lr}
    a944:	e28db008 	add	fp, sp, #8	; 0x8
    a948:	e24dd024 	sub	sp, sp, #36	; 0x24
    a94c:	e50b0018 	str	r0, [fp, #-24]
    a950:	e50b101c 	str	r1, [fp, #-28]
    a954:	e50b2020 	str	r2, [fp, #-32]
    a958:	e59f4164 	ldr	r4, [pc, #356]	; aac4 <_Z20ilsecfunc_check_hashjjj+0x184>
    a95c:	e08f4004 	add	r4, pc, r4
    a960:	e59f3160 	ldr	r3, [pc, #352]	; aac8 <_Z20ilsecfunc_check_hashjjj+0x188>
    a964:	e50b3010 	str	r3, [fp, #-16]
    a968:	e3a03000 	mov	r3, #0	; 0x0
    a96c:	e50b3014 	str	r3, [fp, #-20]
    a970:	e59f3154 	ldr	r3, [pc, #340]	; aacc <_Z20ilsecfunc_check_hashjjj+0x18c>
    a974:	e7943003 	ldr	r3, [r4, r3]
    a978:	e5933000 	ldr	r3, [r3]
    a97c:	e51b101c 	ldr	r1, [fp, #-28]
    a980:	e51b0020 	ldr	r0, [fp, #-32]
    a984:	e51b201c 	ldr	r2, [fp, #-28]
    a988:	e0622000 	rsb	r2, r2, r0
    a98c:	e1a00001 	mov	r0, r1
    a990:	e1a01002 	mov	r1, r2
    a994:	e12fff33 	blx	r3
    a998:	e1a03000 	mov	r3, r0
    a99c:	e50b3014 	str	r3, [fp, #-20]
    a9a0:	e51b2014 	ldr	r2, [fp, #-20]
    a9a4:	e59f3124 	ldr	r3, [pc, #292]	; aad0 <_Z20ilsecfunc_check_hashjjj+0x190>
    a9a8:	e7943003 	ldr	r3, [r4, r3]
    a9ac:	e5931000 	ldr	r1, [r3]
    a9b0:	e51b3018 	ldr	r3, [fp, #-24]
    a9b4:	e1a03103 	lsl	r3, r3, #2
    a9b8:	e0813003 	add	r3, r1, r3
    a9bc:	e5933000 	ldr	r3, [r3]
    a9c0:	e58d2000 	str	r2, [sp]
    a9c4:	e58d3004 	str	r3, [sp, #4]
    a9c8:	e3a00003 	mov	r0, #3	; 0x3
    a9cc:	e59f3100 	ldr	r3, [pc, #256]	; aad4 <_Z20ilsecfunc_check_hashjjj+0x194>
    a9d0:	e08f3003 	add	r3, pc, r3
    a9d4:	e1a01003 	mov	r1, r3
    a9d8:	e59f30f8 	ldr	r3, [pc, #248]	; aad8 <_Z20ilsecfunc_check_hashjjj+0x198>
    a9dc:	e08f3003 	add	r3, pc, r3
    a9e0:	e1a02003 	mov	r2, r3
    a9e4:	e51b3018 	ldr	r3, [fp, #-24]
    a9e8:	ebfffb65 	bl	9784 <__android_log_print@plt>
    a9ec:	e59f30dc 	ldr	r3, [pc, #220]	; aad0 <_Z20ilsecfunc_check_hashjjj+0x190>
    a9f0:	e7943003 	ldr	r3, [r4, r3]
    a9f4:	e5932000 	ldr	r2, [r3]
    a9f8:	e51b3018 	ldr	r3, [fp, #-24]
    a9fc:	e1a03103 	lsl	r3, r3, #2
    aa00:	e0823003 	add	r3, r2, r3
    aa04:	e5932000 	ldr	r2, [r3]
    aa08:	e51b3014 	ldr	r3, [fp, #-20]
    aa0c:	e1520003 	cmp	r2, r3
    aa10:	0a00001d 	beq	aa8c <_Z20ilsecfunc_check_hashjjj+0x14c>
    aa14:	e51bc014 	ldr	ip, [fp, #-20]
    aa18:	e3a00003 	mov	r0, #3	; 0x3
    aa1c:	e59f30b8 	ldr	r3, [pc, #184]	; aadc <_Z20ilsecfunc_check_hashjjj+0x19c>
    aa20:	e08f3003 	add	r3, pc, r3
    aa24:	e1a01003 	mov	r1, r3
    aa28:	e59f30b0 	ldr	r3, [pc, #176]	; aae0 <_Z20ilsecfunc_check_hashjjj+0x1a0>
    aa2c:	e08f3003 	add	r3, pc, r3
    aa30:	e1a02003 	mov	r2, r3
    aa34:	e1a0300c 	mov	r3, ip
    aa38:	ebfffb51 	bl	9784 <__android_log_print@plt>
    aa3c:	e51b2010 	ldr	r2, [fp, #-16]
    aa40:	e24b3014 	sub	r3, fp, #20	; 0x14
    aa44:	e1a01002 	mov	r1, r2
    aa48:	e1a02003 	mov	r2, r3
    aa4c:	e3a03004 	mov	r3, #4	; 0x4
    aa50:	e1a00001 	mov	r0, r1
    aa54:	e1a01002 	mov	r1, r2
    aa58:	e1a02003 	mov	r2, r3
    aa5c:	ebfffb3f 	bl	9760 <memcpy@plt>
    aa60:	e3a00003 	mov	r0, #3	; 0x3
    aa64:	e59f3078 	ldr	r3, [pc, #120]	; aae4 <_Z20ilsecfunc_check_hashjjj+0x1a4>
    aa68:	e08f3003 	add	r3, pc, r3
    aa6c:	e1a01003 	mov	r1, r3
    aa70:	e59f3070 	ldr	r3, [pc, #112]	; aae8 <_Z20ilsecfunc_check_hashjjj+0x1a8>
    aa74:	e08f3003 	add	r3, pc, r3
    aa78:	e1a02003 	mov	r2, r3
    aa7c:	e51b3018 	ldr	r3, [fp, #-24]
    aa80:	ebfffb3f 	bl	9784 <__android_log_print@plt>
    aa84:	e3a00000 	mov	r0, #0	; 0x0
    aa88:	ebfffb40 	bl	9790 <exit@plt>
    aa8c:	e51bc014 	ldr	ip, [fp, #-20]
    aa90:	e3a00003 	mov	r0, #3	; 0x3
    aa94:	e59f3050 	ldr	r3, [pc, #80]	; aaec <_Z20ilsecfunc_check_hashjjj+0x1ac>
    aa98:	e08f3003 	add	r3, pc, r3
    aa9c:	e1a01003 	mov	r1, r3
    aaa0:	e59f3048 	ldr	r3, [pc, #72]	; aaf0 <_Z20ilsecfunc_check_hashjjj+0x1b0>
    aaa4:	e08f3003 	add	r3, pc, r3
    aaa8:	e1a02003 	mov	r2, r3
    aaac:	e1a0300c 	mov	r3, ip
    aab0:	ebfffb33 	bl	9784 <__android_log_print@plt>
    aab4:	e51b3014 	ldr	r3, [fp, #-20]
    aab8:	e1a00003 	mov	r0, r3
    aabc:	e24bd008 	sub	sp, fp, #8	; 0x8
    aac0:	e8bd8810 	pop	{r4, fp, pc}
    aac4:	0002054c 	.word	0x0002054c
    aac8:	fafafafa 	.word	0xfafafafa
    aacc:	fffffe08 	.word	0xfffffe08
    aad0:	fffffe0c 	.word	0xfffffe0c
    aad4:	0001bfbc 	.word	0x0001bfbc
    aad8:	0001bfbc 	.word	0x0001bfbc
    aadc:	0001bf6c 	.word	0x0001bf6c
    aae0:	0001bf98 	.word	0x0001bf98
    aae4:	0001bf24 	.word	0x0001bf24
    aae8:	0001bf70 	.word	0x0001bf70
    aaec:	0001bef4 	.word	0x0001bef4
    aaf0:	0001bf6c 	.word	0x0001bf6c

0000aaf4 <_Z10ilsec_loadv>:
    aaf4:	e92d4810 	push	{r4, fp, lr}
    aaf8:	e28db008 	add	fp, sp, #8	; 0x8
    aafc:	e24dd03c 	sub	sp, sp, #60	; 0x3c
    ab00:	e59f42dc 	ldr	r4, [pc, #732]	; ade4 <_Z10ilsec_loadv+0x2f0>
    ab04:	e08f4004 	add	r4, pc, r4
    ab08:	e59f32d8 	ldr	r3, [pc, #728]	; ade8 <_Z10ilsec_loadv+0x2f4>
    ab0c:	e7943003 	ldr	r3, [r4, r3]
    ab10:	e1a00003 	mov	r0, r3
    ab14:	e3a01000 	mov	r1, #0	; 0x0
    ab18:	ebfffb1f 	bl	979c <pthread_mutex_init@plt>
    ab1c:	e59f32c8 	ldr	r3, [pc, #712]	; adec <_Z10ilsec_loadv+0x2f8>
    ab20:	e7943003 	ldr	r3, [r4, r3]
    ab24:	e3a02c02 	mov	r2, #512	; 0x200
    ab28:	e5832000 	str	r2, [r3]
    ab2c:	e59f32bc 	ldr	r3, [pc, #700]	; adf0 <_Z10ilsec_loadv+0x2fc>
    ab30:	e7943003 	ldr	r3, [r4, r3]
    ab34:	e3e02000 	mvn	r2, #0	; 0x0
    ab38:	e5832000 	str	r2, [r3]
    ab3c:	e59f32b0 	ldr	r3, [pc, #688]	; adf4 <_Z10ilsec_loadv+0x300>
    ab40:	e7943003 	ldr	r3, [r4, r3]
    ab44:	e3e02066 	mvn	r2, #102	; 0x66
    ab48:	e5c32000 	strb	r2, [r3]
    ab4c:	e59f32a4 	ldr	r3, [pc, #676]	; adf8 <_Z10ilsec_loadv+0x304>
    ab50:	e7943003 	ldr	r3, [r4, r3]
    ab54:	e59f22a0 	ldr	r2, [pc, #672]	; adfc <_Z10ilsec_loadv+0x308>
    ab58:	e7942002 	ldr	r2, [r4, r2]
    ab5c:	e5832000 	str	r2, [r3]
    ab60:	e59f3298 	ldr	r3, [pc, #664]	; ae00 <_Z10ilsec_loadv+0x30c>
    ab64:	e7943003 	ldr	r3, [r4, r3]
    ab68:	e59f2294 	ldr	r2, [pc, #660]	; ae04 <_Z10ilsec_loadv+0x310>
    ab6c:	e7942002 	ldr	r2, [r4, r2]
    ab70:	e5832000 	str	r2, [r3]
    ab74:	e59f328c 	ldr	r3, [pc, #652]	; ae08 <_Z10ilsec_loadv+0x314>
    ab78:	e7943003 	ldr	r3, [r4, r3]
    ab7c:	e5933000 	ldr	r3, [r3]
    ab80:	e1a03103 	lsl	r3, r3, #2
    ab84:	e1a00003 	mov	r0, r3
    ab88:	ebfffaee 	bl	9748 <malloc@plt>
    ab8c:	e1a03000 	mov	r3, r0
    ab90:	e1a02003 	mov	r2, r3
    ab94:	e59f3270 	ldr	r3, [pc, #624]	; ae0c <_Z10ilsec_loadv+0x318>
    ab98:	e7943003 	ldr	r3, [r4, r3]
    ab9c:	e5832000 	str	r2, [r3]
    aba0:	e59f3268 	ldr	r3, [pc, #616]	; ae10 <_Z10ilsec_loadv+0x31c>
    aba4:	e7943003 	ldr	r3, [r4, r3]
    aba8:	e50b3014 	str	r3, [fp, #-20]
    abac:	e59f3260 	ldr	r3, [pc, #608]	; ae14 <_Z10ilsec_loadv+0x320>
    abb0:	e7943003 	ldr	r3, [r4, r3]
    abb4:	e50b3018 	str	r3, [fp, #-24]
    abb8:	e59f3240 	ldr	r3, [pc, #576]	; ae00 <_Z10ilsec_loadv+0x30c>
    abbc:	e7943003 	ldr	r3, [r4, r3]
    abc0:	e5933000 	ldr	r3, [r3]
    abc4:	e51b1014 	ldr	r1, [fp, #-20]
    abc8:	e51b0018 	ldr	r0, [fp, #-24]
    abcc:	e51b2014 	ldr	r2, [fp, #-20]
    abd0:	e0622000 	rsb	r2, r2, r0
    abd4:	e1a00001 	mov	r0, r1
    abd8:	e1a01002 	mov	r1, r2
    abdc:	e12fff33 	blx	r3
    abe0:	e1a03000 	mov	r3, r0
    abe4:	e50b301c 	str	r3, [fp, #-28]
    abe8:	e59f321c 	ldr	r3, [pc, #540]	; ae0c <_Z10ilsec_loadv+0x318>
    abec:	e7943003 	ldr	r3, [r4, r3]
    abf0:	e5933000 	ldr	r3, [r3]
    abf4:	e51b201c 	ldr	r2, [fp, #-28]
    abf8:	e5832000 	str	r2, [r3]
    abfc:	e59f3214 	ldr	r3, [pc, #532]	; ae18 <_Z10ilsec_loadv+0x324>
    ac00:	e7943003 	ldr	r3, [r4, r3]
    ac04:	e50b3020 	str	r3, [fp, #-32]
    ac08:	e59f320c 	ldr	r3, [pc, #524]	; ae1c <_Z10ilsec_loadv+0x328>
    ac0c:	e7943003 	ldr	r3, [r4, r3]
    ac10:	e50b3024 	str	r3, [fp, #-36]
    ac14:	e59f31e4 	ldr	r3, [pc, #484]	; ae00 <_Z10ilsec_loadv+0x30c>
    ac18:	e7943003 	ldr	r3, [r4, r3]
    ac1c:	e5933000 	ldr	r3, [r3]
    ac20:	e51b1020 	ldr	r1, [fp, #-32]
    ac24:	e51b0024 	ldr	r0, [fp, #-36]
    ac28:	e51b2020 	ldr	r2, [fp, #-32]
    ac2c:	e0622000 	rsb	r2, r2, r0
    ac30:	e1a00001 	mov	r0, r1
    ac34:	e1a01002 	mov	r1, r2
    ac38:	e12fff33 	blx	r3
    ac3c:	e1a03000 	mov	r3, r0
    ac40:	e50b3028 	str	r3, [fp, #-40]
    ac44:	e59f31c0 	ldr	r3, [pc, #448]	; ae0c <_Z10ilsec_loadv+0x318>
    ac48:	e7943003 	ldr	r3, [r4, r3]
    ac4c:	e5933000 	ldr	r3, [r3]
    ac50:	e2833004 	add	r3, r3, #4	; 0x4
    ac54:	e51b2028 	ldr	r2, [fp, #-40]
    ac58:	e5832000 	str	r2, [r3]
    ac5c:	e59f31bc 	ldr	r3, [pc, #444]	; ae20 <_Z10ilsec_loadv+0x32c>
    ac60:	e7943003 	ldr	r3, [r4, r3]
    ac64:	e50b302c 	str	r3, [fp, #-44]
    ac68:	e59f31b4 	ldr	r3, [pc, #436]	; ae24 <_Z10ilsec_loadv+0x330>
    ac6c:	e7943003 	ldr	r3, [r4, r3]
    ac70:	e50b3030 	str	r3, [fp, #-48]
    ac74:	e59f3184 	ldr	r3, [pc, #388]	; ae00 <_Z10ilsec_loadv+0x30c>
    ac78:	e7943003 	ldr	r3, [r4, r3]
    ac7c:	e5933000 	ldr	r3, [r3]
    ac80:	e51b102c 	ldr	r1, [fp, #-44]
    ac84:	e51b0030 	ldr	r0, [fp, #-48]
    ac88:	e51b202c 	ldr	r2, [fp, #-44]
    ac8c:	e0622000 	rsb	r2, r2, r0
    ac90:	e1a00001 	mov	r0, r1
    ac94:	e1a01002 	mov	r1, r2
    ac98:	e12fff33 	blx	r3
    ac9c:	e1a03000 	mov	r3, r0
    aca0:	e50b3034 	str	r3, [fp, #-52]
    aca4:	e59f3160 	ldr	r3, [pc, #352]	; ae0c <_Z10ilsec_loadv+0x318>
    aca8:	e7943003 	ldr	r3, [r4, r3]
    acac:	e5933000 	ldr	r3, [r3]
    acb0:	e2833008 	add	r3, r3, #8	; 0x8
    acb4:	e51b2034 	ldr	r2, [fp, #-52]
    acb8:	e5832000 	str	r2, [r3]
    acbc:	e59f3164 	ldr	r3, [pc, #356]	; ae28 <_Z10ilsec_loadv+0x334>
    acc0:	e7943003 	ldr	r3, [r4, r3]
    acc4:	e50b3038 	str	r3, [fp, #-56]
    acc8:	e59f315c 	ldr	r3, [pc, #348]	; ae2c <_Z10ilsec_loadv+0x338>
    accc:	e7943003 	ldr	r3, [r4, r3]
    acd0:	e50b303c 	str	r3, [fp, #-60]
    acd4:	e59f3124 	ldr	r3, [pc, #292]	; ae00 <_Z10ilsec_loadv+0x30c>
    acd8:	e7943003 	ldr	r3, [r4, r3]
    acdc:	e5933000 	ldr	r3, [r3]
    ace0:	e51b1038 	ldr	r1, [fp, #-56]
    ace4:	e51b003c 	ldr	r0, [fp, #-60]
    ace8:	e51b2038 	ldr	r2, [fp, #-56]
    acec:	e0622000 	rsb	r2, r2, r0
    acf0:	e1a00001 	mov	r0, r1
    acf4:	e1a01002 	mov	r1, r2
    acf8:	e12fff33 	blx	r3
    acfc:	e1a03000 	mov	r3, r0
    ad00:	e50b3040 	str	r3, [fp, #-64]
    ad04:	e59f3100 	ldr	r3, [pc, #256]	; ae0c <_Z10ilsec_loadv+0x318>
    ad08:	e7943003 	ldr	r3, [r4, r3]
    ad0c:	e5933000 	ldr	r3, [r3]
    ad10:	e283300c 	add	r3, r3, #12	; 0xc
    ad14:	e51b2040 	ldr	r2, [fp, #-64]
    ad18:	e5832000 	str	r2, [r3]
    ad1c:	e3a00003 	mov	r0, #3	; 0x3
    ad20:	e59f3108 	ldr	r3, [pc, #264]	; ae30 <_Z10ilsec_loadv+0x33c>
    ad24:	e08f3003 	add	r3, pc, r3
    ad28:	e1a01003 	mov	r1, r3
    ad2c:	e59f3100 	ldr	r3, [pc, #256]	; ae34 <_Z10ilsec_loadv+0x340>
    ad30:	e08f3003 	add	r3, pc, r3
    ad34:	e1a02003 	mov	r2, r3
    ad38:	ebfffa91 	bl	9784 <__android_log_print@plt>
    ad3c:	e3a03000 	mov	r3, #0	; 0x0
    ad40:	e50b3010 	str	r3, [fp, #-16]
    ad44:	ea000012 	b	ad94 <_Z10ilsec_loadv+0x2a0>
    ad48:	e59f30bc 	ldr	r3, [pc, #188]	; ae0c <_Z10ilsec_loadv+0x318>
    ad4c:	e7943003 	ldr	r3, [r4, r3]
    ad50:	e5932000 	ldr	r2, [r3]
    ad54:	e51b3010 	ldr	r3, [fp, #-16]
    ad58:	e1a03203 	lsl	r3, r3, #4
    ad5c:	e0823003 	add	r3, r2, r3
    ad60:	e593c000 	ldr	ip, [r3]
    ad64:	e3a00003 	mov	r0, #3	; 0x3
    ad68:	e59f30c8 	ldr	r3, [pc, #200]	; ae38 <_Z10ilsec_loadv+0x344>
    ad6c:	e08f3003 	add	r3, pc, r3
    ad70:	e1a01003 	mov	r1, r3
    ad74:	e59f30c0 	ldr	r3, [pc, #192]	; ae3c <_Z10ilsec_loadv+0x348>
    ad78:	e08f3003 	add	r3, pc, r3
    ad7c:	e1a02003 	mov	r2, r3
    ad80:	e1a0300c 	mov	r3, ip
    ad84:	ebfffa7e 	bl	9784 <__android_log_print@plt>
    ad88:	e51b3010 	ldr	r3, [fp, #-16]
    ad8c:	e2833001 	add	r3, r3, #1	; 0x1
    ad90:	e50b3010 	str	r3, [fp, #-16]
    ad94:	e51b2010 	ldr	r2, [fp, #-16]
    ad98:	e59f3068 	ldr	r3, [pc, #104]	; ae08 <_Z10ilsec_loadv+0x314>
    ad9c:	e7943003 	ldr	r3, [r4, r3]
    ada0:	e5933000 	ldr	r3, [r3]
    ada4:	e1520003 	cmp	r2, r3
    ada8:	23a03000 	movcs	r3, #0	; 0x0
    adac:	33a03001 	movcc	r3, #1	; 0x1
    adb0:	e20330ff 	and	r3, r3, #255	; 0xff
    adb4:	e3530000 	cmp	r3, #0	; 0x0
    adb8:	1affffe2 	bne	ad48 <_Z10ilsec_loadv+0x254>
    adbc:	e3a00003 	mov	r0, #3	; 0x3
    adc0:	e59f3078 	ldr	r3, [pc, #120]	; ae40 <_Z10ilsec_loadv+0x34c>
    adc4:	e08f3003 	add	r3, pc, r3
    adc8:	e1a01003 	mov	r1, r3
    adcc:	e59f3070 	ldr	r3, [pc, #112]	; ae44 <_Z10ilsec_loadv+0x350>
    add0:	e08f3003 	add	r3, pc, r3
    add4:	e1a02003 	mov	r2, r3
    add8:	ebfffa69 	bl	9784 <__android_log_print@plt>
    addc:	e24bd008 	sub	sp, fp, #8	; 0x8
    ade0:	e8bd8810 	pop	{r4, fp, pc}
    ade4:	000203a4 	.word	0x000203a4
    ade8:	fffffe10 	.word	0xfffffe10
    adec:	fffffe14 	.word	0xfffffe14
    adf0:	fffffe18 	.word	0xfffffe18
    adf4:	fffffe1c 	.word	0xfffffe1c
    adf8:	fffffe20 	.word	0xfffffe20
    adfc:	fffffe24 	.word	0xfffffe24
    ae00:	fffffe08 	.word	0xfffffe08
    ae04:	fffffe28 	.word	0xfffffe28
    ae08:	fffffe2c 	.word	0xfffffe2c
    ae0c:	fffffe0c 	.word	0xfffffe0c
    ae10:	fffffe30 	.word	0xfffffe30
    ae14:	fffffe34 	.word	0xfffffe34
    ae18:	fffffe38 	.word	0xfffffe38
    ae1c:	fffffe3c 	.word	0xfffffe3c
    ae20:	fffffe40 	.word	0xfffffe40
    ae24:	fffffe44 	.word	0xfffffe44
    ae28:	fffffe48 	.word	0xfffffe48
    ae2c:	fffffe4c 	.word	0xfffffe4c
    ae30:	0001bc68 	.word	0x0001bc68
    ae34:	0001bcfc 	.word	0x0001bcfc
    ae38:	0001bc20 	.word	0x0001bc20
    ae3c:	0001bccc 	.word	0x0001bccc
    ae40:	0001bbc8 	.word	0x0001bbc8
    ae44:	0001bc78 	.word	0x0001bc78

0000ae48 <_Z12ilsec_unloadv>:
    ae48:	e92d4800 	push	{fp, lr}
    ae4c:	e28db004 	add	fp, sp, #4	; 0x4
    ae50:	e59f302c 	ldr	r3, [pc, #44]	; ae84 <_Z12ilsec_unloadv+0x3c>
    ae54:	e08f3003 	add	r3, pc, r3
    ae58:	e59f2028 	ldr	r2, [pc, #40]	; ae88 <_Z12ilsec_unloadv+0x40>
    ae5c:	e7932002 	ldr	r2, [r3, r2]
    ae60:	e5922000 	ldr	r2, [r2]
    ae64:	e3520000 	cmp	r2, #0	; 0x0
    ae68:	0a000004 	beq	ae80 <_Z12ilsec_unloadv+0x38>
    ae6c:	e59f2014 	ldr	r2, [pc, #20]	; ae88 <_Z12ilsec_unloadv+0x40>
    ae70:	e7933002 	ldr	r3, [r3, r2]
    ae74:	e5933000 	ldr	r3, [r3]
    ae78:	e1a00003 	mov	r0, r3
    ae7c:	ebfffa3d 	bl	9778 <free@plt>
    ae80:	e8bd8800 	pop	{fp, pc}
    ae84:	00020054 	.word	0x00020054
    ae88:	fffffe0c 	.word	0xfffffe0c

0000ae8c <_Z10pool_startPFPvS_Ej>:
    ae8c:	e92d4800 	push	{fp, lr}
    ae90:	e28db004 	add	fp, sp, #4	; 0x4
    ae94:	e24dd010 	sub	sp, sp, #16	; 0x10
    ae98:	e50b0010 	str	r0, [fp, #-16]
    ae9c:	e50b1014 	str	r1, [fp, #-20]
    aea0:	e51b3014 	ldr	r3, [fp, #-20]
    aea4:	e2833008 	add	r3, r3, #8	; 0x8
    aea8:	e1a03103 	lsl	r3, r3, #2
    aeac:	e1a00003 	mov	r0, r3
    aeb0:	ebfffa24 	bl	9748 <malloc@plt>
    aeb4:	e1a03000 	mov	r3, r0
    aeb8:	e50b300c 	str	r3, [fp, #-12]
    aebc:	e51b300c 	ldr	r3, [fp, #-12]
    aec0:	e2833018 	add	r3, r3, #24	; 0x18
    aec4:	e1a00003 	mov	r0, r3
    aec8:	e3a01000 	mov	r1, #0	; 0x0
    aecc:	ebfffa32 	bl	979c <pthread_mutex_init@plt>
    aed0:	e51b300c 	ldr	r3, [fp, #-12]
    aed4:	e283301c 	add	r3, r3, #28	; 0x1c
    aed8:	e1a00003 	mov	r0, r3
    aedc:	e3a01000 	mov	r1, #0	; 0x0
    aee0:	ebfffa30 	bl	97a8 <pthread_cond_init@plt>
    aee4:	e51b300c 	ldr	r3, [fp, #-12]
    aee8:	e51b2014 	ldr	r2, [fp, #-20]
    aeec:	e583200c 	str	r2, [r3, #12]
    aef0:	e51b300c 	ldr	r3, [fp, #-12]
    aef4:	e51b2010 	ldr	r2, [fp, #-16]
    aef8:	e5832004 	str	r2, [r3, #4]
    aefc:	e51b300c 	ldr	r3, [fp, #-12]
    af00:	e3a02000 	mov	r2, #0	; 0x0
    af04:	e5c32000 	strb	r2, [r3]
    af08:	e51b300c 	ldr	r3, [fp, #-12]
    af0c:	e3a02000 	mov	r2, #0	; 0x0
    af10:	e5832008 	str	r2, [r3, #8]
    af14:	e51b300c 	ldr	r3, [fp, #-12]
    af18:	e3a02000 	mov	r2, #0	; 0x0
    af1c:	e5832014 	str	r2, [r3, #20]
    af20:	e51b300c 	ldr	r3, [fp, #-12]
    af24:	e3a02000 	mov	r2, #0	; 0x0
    af28:	e5832010 	str	r2, [r3, #16]
    af2c:	e3a03000 	mov	r3, #0	; 0x0
    af30:	e50b3008 	str	r3, [fp, #-8]
    af34:	ea00000e 	b	af74 <_Z10pool_startPFPvS_Ej+0xe8>
    af38:	e51b3008 	ldr	r3, [fp, #-8]
    af3c:	e2833008 	add	r3, r3, #8	; 0x8
    af40:	e1a03103 	lsl	r3, r3, #2
    af44:	e51b200c 	ldr	r2, [fp, #-12]
    af48:	e0823003 	add	r3, r2, r3
    af4c:	e1a00003 	mov	r0, r3
    af50:	e3a01000 	mov	r1, #0	; 0x0
    af54:	e59f3048 	ldr	r3, [pc, #72]	; afa4 <_Z10pool_startPFPvS_Ej+0x118>
    af58:	e08f3003 	add	r3, pc, r3
    af5c:	e1a02003 	mov	r2, r3
    af60:	e51b300c 	ldr	r3, [fp, #-12]
    af64:	ebfffa12 	bl	97b4 <pthread_create@plt>
    af68:	e51b3008 	ldr	r3, [fp, #-8]
    af6c:	e2833001 	add	r3, r3, #1	; 0x1
    af70:	e50b3008 	str	r3, [fp, #-8]
    af74:	e51b2008 	ldr	r2, [fp, #-8]
    af78:	e51b3014 	ldr	r3, [fp, #-20]
    af7c:	e1520003 	cmp	r2, r3
    af80:	23a03000 	movcs	r3, #0	; 0x0
    af84:	33a03001 	movcc	r3, #1	; 0x1
    af88:	e20330ff 	and	r3, r3, #255	; 0xff
    af8c:	e3530000 	cmp	r3, #0	; 0x0
    af90:	1affffe8 	bne	af38 <_Z10pool_startPFPvS_Ej+0xac>
    af94:	e51b300c 	ldr	r3, [fp, #-12]
    af98:	e1a00003 	mov	r0, r3
    af9c:	e24bd004 	sub	sp, fp, #4	; 0x4
    afa0:	e8bd8800 	pop	{fp, pc}
    afa4:	000002ec 	.word	0x000002ec

0000afa8 <_Z12pool_enqueuePvS_c>:
    afa8:	e92d4800 	push	{fp, lr}
    afac:	e28db004 	add	fp, sp, #4	; 0x4
    afb0:	e24dd018 	sub	sp, sp, #24	; 0x18
    afb4:	e50b0010 	str	r0, [fp, #-16]
    afb8:	e50b1014 	str	r1, [fp, #-20]
    afbc:	e1a03002 	mov	r3, r2
    afc0:	e54b3015 	strb	r3, [fp, #-21]
    afc4:	e51b3010 	ldr	r3, [fp, #-16]
    afc8:	e50b3008 	str	r3, [fp, #-8]
    afcc:	e3a0000c 	mov	r0, #12	; 0xc
    afd0:	ebfff9dc 	bl	9748 <malloc@plt>
    afd4:	e1a03000 	mov	r3, r0
    afd8:	e50b300c 	str	r3, [fp, #-12]
    afdc:	e51b300c 	ldr	r3, [fp, #-12]
    afe0:	e51b2014 	ldr	r2, [fp, #-20]
    afe4:	e5832000 	str	r2, [r3]
    afe8:	e51b300c 	ldr	r3, [fp, #-12]
    afec:	e3a02000 	mov	r2, #0	; 0x0
    aff0:	e5832008 	str	r2, [r3, #8]
    aff4:	e51b300c 	ldr	r3, [fp, #-12]
    aff8:	e55b2015 	ldrb	r2, [fp, #-21]
    affc:	e5c32004 	strb	r2, [r3, #4]
    b000:	e51b3008 	ldr	r3, [fp, #-8]
    b004:	e2833018 	add	r3, r3, #24	; 0x18
    b008:	e1a00003 	mov	r0, r3
    b00c:	ebfff9eb 	bl	97c0 <pthread_mutex_lock@plt>
    b010:	e51b3008 	ldr	r3, [fp, #-8]
    b014:	e5933014 	ldr	r3, [r3, #20]
    b018:	e3530000 	cmp	r3, #0	; 0x0
    b01c:	0a000003 	beq	b030 <_Z12pool_enqueuePvS_c+0x88>
    b020:	e51b3008 	ldr	r3, [fp, #-8]
    b024:	e5933014 	ldr	r3, [r3, #20]
    b028:	e51b200c 	ldr	r2, [fp, #-12]
    b02c:	e5832008 	str	r2, [r3, #8]
    b030:	e51b3008 	ldr	r3, [fp, #-8]
    b034:	e5933010 	ldr	r3, [r3, #16]
    b038:	e3530000 	cmp	r3, #0	; 0x0
    b03c:	1a000002 	bne	b04c <_Z12pool_enqueuePvS_c+0xa4>
    b040:	e51b3008 	ldr	r3, [fp, #-8]
    b044:	e51b200c 	ldr	r2, [fp, #-12]
    b048:	e5832010 	str	r2, [r3, #16]
    b04c:	e51b3008 	ldr	r3, [fp, #-8]
    b050:	e51b200c 	ldr	r2, [fp, #-12]
    b054:	e5832014 	str	r2, [r3, #20]
    b058:	e51b3008 	ldr	r3, [fp, #-8]
    b05c:	e5933008 	ldr	r3, [r3, #8]
    b060:	e2832001 	add	r2, r3, #1	; 0x1
    b064:	e51b3008 	ldr	r3, [fp, #-8]
    b068:	e5832008 	str	r2, [r3, #8]
    b06c:	e51b3008 	ldr	r3, [fp, #-8]
    b070:	e283301c 	add	r3, r3, #28	; 0x1c
    b074:	e1a00003 	mov	r0, r3
    b078:	ebfff9d3 	bl	97cc <pthread_cond_signal@plt>
    b07c:	e51b3008 	ldr	r3, [fp, #-8]
    b080:	e2833018 	add	r3, r3, #24	; 0x18
    b084:	e1a00003 	mov	r0, r3
    b088:	ebfff9d2 	bl	97d8 <pthread_mutex_unlock@plt>
    b08c:	e24bd004 	sub	sp, fp, #4	; 0x4
    b090:	e8bd8800 	pop	{fp, pc}

0000b094 <_Z9pool_waitPv>:
    b094:	e92d4800 	push	{fp, lr}
    b098:	e28db004 	add	fp, sp, #4	; 0x4
    b09c:	e24dd010 	sub	sp, sp, #16	; 0x10
    b0a0:	e50b0010 	str	r0, [fp, #-16]
    b0a4:	e51b3010 	ldr	r3, [fp, #-16]
    b0a8:	e50b3008 	str	r3, [fp, #-8]
    b0ac:	e51b3008 	ldr	r3, [fp, #-8]
    b0b0:	e2833018 	add	r3, r3, #24	; 0x18
    b0b4:	e1a00003 	mov	r0, r3
    b0b8:	ebfff9c0 	bl	97c0 <pthread_mutex_lock@plt>
    b0bc:	ea000006 	b	b0dc <_Z9pool_waitPv+0x48>
    b0c0:	e51b3008 	ldr	r3, [fp, #-8]
    b0c4:	e283201c 	add	r2, r3, #28	; 0x1c
    b0c8:	e51b3008 	ldr	r3, [fp, #-8]
    b0cc:	e2833018 	add	r3, r3, #24	; 0x18
    b0d0:	e1a00002 	mov	r0, r2
    b0d4:	e1a01003 	mov	r1, r3
    b0d8:	ebfff9c1 	bl	97e4 <pthread_cond_wait@plt>
    b0dc:	e51b3008 	ldr	r3, [fp, #-8]
    b0e0:	e5d33000 	ldrb	r3, [r3]
    b0e4:	e3530000 	cmp	r3, #0	; 0x0
    b0e8:	1a000005 	bne	b104 <_Z9pool_waitPv+0x70>
    b0ec:	e51b3008 	ldr	r3, [fp, #-8]
    b0f0:	e5933008 	ldr	r3, [r3, #8]
    b0f4:	e3530000 	cmp	r3, #0	; 0x0
    b0f8:	0a000001 	beq	b104 <_Z9pool_waitPv+0x70>
    b0fc:	e3a03001 	mov	r3, #1	; 0x1
    b100:	ea000000 	b	b108 <_Z9pool_waitPv+0x74>
    b104:	e3a03000 	mov	r3, #0	; 0x0
    b108:	e3530000 	cmp	r3, #0	; 0x0
    b10c:	1affffeb 	bne	b0c0 <_Z9pool_waitPv+0x2c>
    b110:	e51b3008 	ldr	r3, [fp, #-8]
    b114:	e2833018 	add	r3, r3, #24	; 0x18
    b118:	e1a00003 	mov	r0, r3
    b11c:	ebfff9ad 	bl	97d8 <pthread_mutex_unlock@plt>
    b120:	e24bd004 	sub	sp, fp, #4	; 0x4
    b124:	e8bd8800 	pop	{fp, pc}

0000b128 <_Z8pool_endPv>:
    b128:	e92d4800 	push	{fp, lr}
    b12c:	e28db004 	add	fp, sp, #4	; 0x4
    b130:	e24dd018 	sub	sp, sp, #24	; 0x18
    b134:	e50b0018 	str	r0, [fp, #-24]
    b138:	e51b3018 	ldr	r3, [fp, #-24]
    b13c:	e50b300c 	str	r3, [fp, #-12]
    b140:	e51b300c 	ldr	r3, [fp, #-12]
    b144:	e3a02001 	mov	r2, #1	; 0x1
    b148:	e5c32000 	strb	r2, [r3]
    b14c:	e51b300c 	ldr	r3, [fp, #-12]
    b150:	e2833018 	add	r3, r3, #24	; 0x18
    b154:	e1a00003 	mov	r0, r3
    b158:	ebfff998 	bl	97c0 <pthread_mutex_lock@plt>
    b15c:	e51b300c 	ldr	r3, [fp, #-12]
    b160:	e283301c 	add	r3, r3, #28	; 0x1c
    b164:	e1a00003 	mov	r0, r3
    b168:	ebfff9a0 	bl	97f0 <pthread_cond_broadcast@plt>
    b16c:	e51b300c 	ldr	r3, [fp, #-12]
    b170:	e2833018 	add	r3, r3, #24	; 0x18
    b174:	e1a00003 	mov	r0, r3
    b178:	ebfff996 	bl	97d8 <pthread_mutex_unlock@plt>
    b17c:	e3a03000 	mov	r3, #0	; 0x0
    b180:	e50b3008 	str	r3, [fp, #-8]
    b184:	ea000009 	b	b1b0 <_Z8pool_endPv+0x88>
    b188:	e51b300c 	ldr	r3, [fp, #-12]
    b18c:	e51b2008 	ldr	r2, [fp, #-8]
    b190:	e2822008 	add	r2, r2, #8	; 0x8
    b194:	e7933102 	ldr	r3, [r3, r2, lsl #2]
    b198:	e1a00003 	mov	r0, r3
    b19c:	e3a01000 	mov	r1, #0	; 0x0
    b1a0:	ebfff995 	bl	97fc <pthread_join@plt>
    b1a4:	e51b3008 	ldr	r3, [fp, #-8]
    b1a8:	e2833001 	add	r3, r3, #1	; 0x1
    b1ac:	e50b3008 	str	r3, [fp, #-8]
    b1b0:	e51b2008 	ldr	r2, [fp, #-8]
    b1b4:	e51b300c 	ldr	r3, [fp, #-12]
    b1b8:	e593300c 	ldr	r3, [r3, #12]
    b1bc:	e1520003 	cmp	r2, r3
    b1c0:	23a03000 	movcs	r3, #0	; 0x0
    b1c4:	33a03001 	movcc	r3, #1	; 0x1
    b1c8:	e20330ff 	and	r3, r3, #255	; 0xff
    b1cc:	e3530000 	cmp	r3, #0	; 0x0
    b1d0:	1affffec 	bne	b188 <_Z8pool_endPv+0x60>
    b1d4:	ea000010 	b	b21c <_Z8pool_endPv+0xf4>
    b1d8:	e51b300c 	ldr	r3, [fp, #-12]
    b1dc:	e5933010 	ldr	r3, [r3, #16]
    b1e0:	e50b3010 	str	r3, [fp, #-16]
    b1e4:	e51b3010 	ldr	r3, [fp, #-16]
    b1e8:	e5932008 	ldr	r2, [r3, #8]
    b1ec:	e51b300c 	ldr	r3, [fp, #-12]
    b1f0:	e5832010 	str	r2, [r3, #16]
    b1f4:	e51b3010 	ldr	r3, [fp, #-16]
    b1f8:	e5d33004 	ldrb	r3, [r3, #4]
    b1fc:	e3530000 	cmp	r3, #0	; 0x0
    b200:	0a000003 	beq	b214 <_Z8pool_endPv+0xec>
    b204:	e51b3010 	ldr	r3, [fp, #-16]
    b208:	e5933000 	ldr	r3, [r3]
    b20c:	e1a00003 	mov	r0, r3
    b210:	ebfff958 	bl	9778 <free@plt>
    b214:	e51b0010 	ldr	r0, [fp, #-16]
    b218:	ebfff956 	bl	9778 <free@plt>
    b21c:	e51b300c 	ldr	r3, [fp, #-12]
    b220:	e5933010 	ldr	r3, [r3, #16]
    b224:	e3530000 	cmp	r3, #0	; 0x0
    b228:	03a03000 	moveq	r3, #0	; 0x0
    b22c:	13a03001 	movne	r3, #1	; 0x1
    b230:	e20330ff 	and	r3, r3, #255	; 0xff
    b234:	e3530000 	cmp	r3, #0	; 0x0
    b238:	1affffe6 	bne	b1d8 <_Z8pool_endPv+0xb0>
    b23c:	e51b000c 	ldr	r0, [fp, #-12]
    b240:	ebfff94c 	bl	9778 <free@plt>
    b244:	e24bd004 	sub	sp, fp, #4	; 0x4
    b248:	e8bd8800 	pop	{fp, pc}

0000b24c <_ZL6threadPv>:
    b24c:	e92d4800 	push	{fp, lr}
    b250:	e28db004 	add	fp, sp, #4	; 0x4
    b254:	e24dd010 	sub	sp, sp, #16	; 0x10
    b258:	e50b0010 	str	r0, [fp, #-16]
    b25c:	e51b3010 	ldr	r3, [fp, #-16]
    b260:	e50b3008 	str	r3, [fp, #-8]
    b264:	ea00005b 	b	b3d8 <_ZL6threadPv+0x18c>
    b268:	e51b3008 	ldr	r3, [fp, #-8]
    b26c:	e2833018 	add	r3, r3, #24	; 0x18
    b270:	e1a00003 	mov	r0, r3
    b274:	ebfff951 	bl	97c0 <pthread_mutex_lock@plt>
    b278:	ea000006 	b	b298 <_ZL6threadPv+0x4c>
    b27c:	e51b3008 	ldr	r3, [fp, #-8]
    b280:	e283201c 	add	r2, r3, #28	; 0x1c
    b284:	e51b3008 	ldr	r3, [fp, #-8]
    b288:	e2833018 	add	r3, r3, #24	; 0x18
    b28c:	e1a00002 	mov	r0, r2
    b290:	e1a01003 	mov	r1, r3
    b294:	ebfff952 	bl	97e4 <pthread_cond_wait@plt>
    b298:	e51b3008 	ldr	r3, [fp, #-8]
    b29c:	e5d33000 	ldrb	r3, [r3]
    b2a0:	e3530000 	cmp	r3, #0	; 0x0
    b2a4:	1a000005 	bne	b2c0 <_ZL6threadPv+0x74>
    b2a8:	e51b3008 	ldr	r3, [fp, #-8]
    b2ac:	e5933010 	ldr	r3, [r3, #16]
    b2b0:	e3530000 	cmp	r3, #0	; 0x0
    b2b4:	1a000001 	bne	b2c0 <_ZL6threadPv+0x74>
    b2b8:	e3a03001 	mov	r3, #1	; 0x1
    b2bc:	ea000000 	b	b2c4 <_ZL6threadPv+0x78>
    b2c0:	e3a03000 	mov	r3, #0	; 0x0
    b2c4:	e3530000 	cmp	r3, #0	; 0x0
    b2c8:	1affffeb 	bne	b27c <_ZL6threadPv+0x30>
    b2cc:	e51b3008 	ldr	r3, [fp, #-8]
    b2d0:	e5d33000 	ldrb	r3, [r3]
    b2d4:	e3530000 	cmp	r3, #0	; 0x0
    b2d8:	0a000005 	beq	b2f4 <_ZL6threadPv+0xa8>
    b2dc:	e51b3008 	ldr	r3, [fp, #-8]
    b2e0:	e2833018 	add	r3, r3, #24	; 0x18
    b2e4:	e1a00003 	mov	r0, r3
    b2e8:	ebfff93a 	bl	97d8 <pthread_mutex_unlock@plt>
    b2ec:	e3a03000 	mov	r3, #0	; 0x0
    b2f0:	ea000041 	b	b3fc <_ZL6threadPv+0x1b0>
    b2f4:	e51b3008 	ldr	r3, [fp, #-8]
    b2f8:	e5933010 	ldr	r3, [r3, #16]
    b2fc:	e50b300c 	str	r3, [fp, #-12]
    b300:	e51b300c 	ldr	r3, [fp, #-12]
    b304:	e5932008 	ldr	r2, [r3, #8]
    b308:	e51b3008 	ldr	r3, [fp, #-8]
    b30c:	e5832010 	str	r2, [r3, #16]
    b310:	e51b3008 	ldr	r3, [fp, #-8]
    b314:	e5932014 	ldr	r2, [r3, #20]
    b318:	e51b300c 	ldr	r3, [fp, #-12]
    b31c:	e1520003 	cmp	r2, r3
    b320:	0a000002 	beq	b330 <_ZL6threadPv+0xe4>
    b324:	e51b3008 	ldr	r3, [fp, #-8]
    b328:	e5933014 	ldr	r3, [r3, #20]
    b32c:	ea000000 	b	b334 <_ZL6threadPv+0xe8>
    b330:	e3a03000 	mov	r3, #0	; 0x0
    b334:	e51b2008 	ldr	r2, [fp, #-8]
    b338:	e5823014 	str	r3, [r2, #20]
    b33c:	e51b3008 	ldr	r3, [fp, #-8]
    b340:	e2833018 	add	r3, r3, #24	; 0x18
    b344:	e1a00003 	mov	r0, r3
    b348:	ebfff922 	bl	97d8 <pthread_mutex_unlock@plt>
    b34c:	e51b3008 	ldr	r3, [fp, #-8]
    b350:	e5933004 	ldr	r3, [r3, #4]
    b354:	e51b200c 	ldr	r2, [fp, #-12]
    b358:	e5922000 	ldr	r2, [r2]
    b35c:	e1a00002 	mov	r0, r2
    b360:	e12fff33 	blx	r3
    b364:	e51b300c 	ldr	r3, [fp, #-12]
    b368:	e5d33004 	ldrb	r3, [r3, #4]
    b36c:	e3530000 	cmp	r3, #0	; 0x0
    b370:	0a000003 	beq	b384 <_ZL6threadPv+0x138>
    b374:	e51b300c 	ldr	r3, [fp, #-12]
    b378:	e5933000 	ldr	r3, [r3]
    b37c:	e1a00003 	mov	r0, r3
    b380:	ebfff8fc 	bl	9778 <free@plt>
    b384:	e51b000c 	ldr	r0, [fp, #-12]
    b388:	ebfff8fa 	bl	9778 <free@plt>
    b38c:	e3a03000 	mov	r3, #0	; 0x0
    b390:	e50b300c 	str	r3, [fp, #-12]
    b394:	e51b3008 	ldr	r3, [fp, #-8]
    b398:	e2833018 	add	r3, r3, #24	; 0x18
    b39c:	e1a00003 	mov	r0, r3
    b3a0:	ebfff906 	bl	97c0 <pthread_mutex_lock@plt>
    b3a4:	e51b3008 	ldr	r3, [fp, #-8]
    b3a8:	e5933008 	ldr	r3, [r3, #8]
    b3ac:	e2432001 	sub	r2, r3, #1	; 0x1
    b3b0:	e51b3008 	ldr	r3, [fp, #-8]
    b3b4:	e5832008 	str	r2, [r3, #8]
    b3b8:	e51b3008 	ldr	r3, [fp, #-8]
    b3bc:	e283301c 	add	r3, r3, #28	; 0x1c
    b3c0:	e1a00003 	mov	r0, r3
    b3c4:	ebfff909 	bl	97f0 <pthread_cond_broadcast@plt>
    b3c8:	e51b3008 	ldr	r3, [fp, #-8]
    b3cc:	e2833018 	add	r3, r3, #24	; 0x18
    b3d0:	e1a00003 	mov	r0, r3
    b3d4:	ebfff8ff 	bl	97d8 <pthread_mutex_unlock@plt>
    b3d8:	e51b3008 	ldr	r3, [fp, #-8]
    b3dc:	e5d33000 	ldrb	r3, [r3]
    b3e0:	e3530000 	cmp	r3, #0	; 0x0
    b3e4:	13a03000 	movne	r3, #0	; 0x0
    b3e8:	03a03001 	moveq	r3, #1	; 0x1
    b3ec:	e20330ff 	and	r3, r3, #255	; 0xff
    b3f0:	e3530000 	cmp	r3, #0	; 0x0
    b3f4:	1affff9b 	bne	b268 <_ZL6threadPv+0x1c>
    b3f8:	e3a03000 	mov	r3, #0	; 0x0
    b3fc:	e1a00003 	mov	r0, r3
    b400:	e24bd004 	sub	sp, fp, #4	; 0x4
    b404:	e8bd8800 	pop	{fp, pc}

0000b408 <_ZN6secelfC1Ev>:
    b408:	e92d4800 	push	{fp, lr}
    b40c:	e28db004 	add	fp, sp, #4	; 0x4
    b410:	e24dd008 	sub	sp, sp, #8	; 0x8
    b414:	e50b0008 	str	r0, [fp, #-8]
    b418:	e51b3008 	ldr	r3, [fp, #-8]
    b41c:	e1a00003 	mov	r0, r3
    b420:	e3a01000 	mov	r1, #0	; 0x0
    b424:	e3a0203c 	mov	r2, #60	; 0x3c
    b428:	ebfff8c9 	bl	9754 <memset@plt>
    b42c:	e51b3008 	ldr	r3, [fp, #-8]
    b430:	e3a02000 	mov	r2, #0	; 0x0
    b434:	e583203c 	str	r2, [r3, #60]
    b438:	e51b3008 	ldr	r3, [fp, #-8]
    b43c:	e3e02000 	mvn	r2, #0	; 0x0
    b440:	e5832040 	str	r2, [r3, #64]
    b444:	e51b3008 	ldr	r3, [fp, #-8]
    b448:	e1a00003 	mov	r0, r3
    b44c:	e24bd004 	sub	sp, fp, #4	; 0x4
    b450:	e8bd8800 	pop	{fp, pc}

0000b454 <_ZN6secelfC1EPvj>:
    b454:	e92d4800 	push	{fp, lr}
    b458:	e28db004 	add	fp, sp, #4	; 0x4
    b45c:	e24dd010 	sub	sp, sp, #16	; 0x10
    b460:	e50b0008 	str	r0, [fp, #-8]
    b464:	e50b100c 	str	r1, [fp, #-12]
    b468:	e50b2010 	str	r2, [fp, #-16]
    b46c:	e51b3008 	ldr	r3, [fp, #-8]
    b470:	e1a00003 	mov	r0, r3
    b474:	e3a01000 	mov	r1, #0	; 0x0
    b478:	e3a0203c 	mov	r2, #60	; 0x3c
    b47c:	ebfff8b4 	bl	9754 <memset@plt>
    b480:	e51b3008 	ldr	r3, [fp, #-8]
    b484:	e3a02000 	mov	r2, #0	; 0x0
    b488:	e583203c 	str	r2, [r3, #60]
    b48c:	e51b3008 	ldr	r3, [fp, #-8]
    b490:	e3a02001 	mov	r2, #1	; 0x1
    b494:	e5832040 	str	r2, [r3, #64]
    b498:	e51b3008 	ldr	r3, [fp, #-8]
    b49c:	e51b200c 	ldr	r2, [fp, #-12]
    b4a0:	e5832034 	str	r2, [r3, #52]
    b4a4:	e51b3008 	ldr	r3, [fp, #-8]
    b4a8:	e51b2010 	ldr	r2, [fp, #-16]
    b4ac:	e5832038 	str	r2, [r3, #56]
    b4b0:	e51b3008 	ldr	r3, [fp, #-8]
    b4b4:	e1a00003 	mov	r0, r3
    b4b8:	e24bd004 	sub	sp, fp, #4	; 0x4
    b4bc:	e8bd8800 	pop	{fp, pc}

0000b4c0 <_ZN6secelfC1EPKc>:
    b4c0:	e92d4800 	push	{fp, lr}
    b4c4:	e28db004 	add	fp, sp, #4	; 0x4
    b4c8:	e24dd008 	sub	sp, sp, #8	; 0x8
    b4cc:	e50b0008 	str	r0, [fp, #-8]
    b4d0:	e50b100c 	str	r1, [fp, #-12]
    b4d4:	e51b3008 	ldr	r3, [fp, #-8]
    b4d8:	e1a00003 	mov	r0, r3
    b4dc:	e3a01000 	mov	r1, #0	; 0x0
    b4e0:	e3a0203c 	mov	r2, #60	; 0x3c
    b4e4:	ebfff89a 	bl	9754 <memset@plt>
    b4e8:	e51b3008 	ldr	r3, [fp, #-8]
    b4ec:	e3a02000 	mov	r2, #0	; 0x0
    b4f0:	e583203c 	str	r2, [r3, #60]
    b4f4:	e51b3008 	ldr	r3, [fp, #-8]
    b4f8:	e3a02002 	mov	r2, #2	; 0x2
    b4fc:	e5832040 	str	r2, [r3, #64]
    b500:	e51b3008 	ldr	r3, [fp, #-8]
    b504:	e51b200c 	ldr	r2, [fp, #-12]
    b508:	e583203c 	str	r2, [r3, #60]
    b50c:	e51b0008 	ldr	r0, [fp, #-8]
    b510:	eb000030 	bl	b5d8 <_ZN6secelf4loadEv>
    b514:	e51b3008 	ldr	r3, [fp, #-8]
    b518:	e1a00003 	mov	r0, r3
    b51c:	e24bd004 	sub	sp, fp, #4	; 0x4
    b520:	e8bd8800 	pop	{fp, pc}

0000b524 <_ZN6secelfD1Ev>:
    b524:	e92d4800 	push	{fp, lr}
    b528:	e28db004 	add	fp, sp, #4	; 0x4
    b52c:	e24dd008 	sub	sp, sp, #8	; 0x8
    b530:	e50b0008 	str	r0, [fp, #-8]
    b534:	e51b3008 	ldr	r3, [fp, #-8]
    b538:	e5933040 	ldr	r3, [r3, #64]
    b53c:	e3530002 	cmp	r3, #2	; 0x2
    b540:	1a000001 	bne	b54c <_ZN6secelfD1Ev+0x28>
    b544:	e51b0008 	ldr	r0, [fp, #-8]
    b548:	eb000064 	bl	b6e0 <_ZN6secelf6unloadEv>
    b54c:	e51b3008 	ldr	r3, [fp, #-8]
    b550:	e1a00003 	mov	r0, r3
    b554:	e24bd004 	sub	sp, fp, #4	; 0x4
    b558:	e8bd8800 	pop	{fp, pc}

0000b55c <_ZN6secelf3getEv>:
    b55c:	e52db004 	push	{fp}		; (str fp, [sp, #-4]!)
    b560:	e28db000 	add	fp, sp, #0	; 0x0
    b564:	e24dd00c 	sub	sp, sp, #12	; 0xc
    b568:	e50b0008 	str	r0, [fp, #-8]
    b56c:	e51b3008 	ldr	r3, [fp, #-8]
    b570:	e1a00003 	mov	r0, r3
    b574:	e28bd000 	add	sp, fp, #0	; 0x0
    b578:	e8bd0800 	pop	{fp}
    b57c:	e12fff1e 	bx	lr

0000b580 <_ZN6secelf3setEP9_sec_elf_>:
    b580:	e92d0810 	push	{r4, fp}
    b584:	e28db004 	add	fp, sp, #4	; 0x4
    b588:	e24dd008 	sub	sp, sp, #8	; 0x8
    b58c:	e50b0008 	str	r0, [fp, #-8]
    b590:	e50b100c 	str	r1, [fp, #-12]
    b594:	e51b2008 	ldr	r2, [fp, #-8]
    b598:	e51b300c 	ldr	r3, [fp, #-12]
    b59c:	e1a0c002 	mov	ip, r2
    b5a0:	e1a04003 	mov	r4, r3
    b5a4:	e8b4000f 	ldm	r4!, {r0, r1, r2, r3}
    b5a8:	e8ac000f 	stmia	ip!, {r0, r1, r2, r3}
    b5ac:	e8b4000f 	ldm	r4!, {r0, r1, r2, r3}
    b5b0:	e8ac000f 	stmia	ip!, {r0, r1, r2, r3}
    b5b4:	e8b4000f 	ldm	r4!, {r0, r1, r2, r3}
    b5b8:	e8ac000f 	stmia	ip!, {r0, r1, r2, r3}
    b5bc:	e8940007 	ldm	r4, {r0, r1, r2}
    b5c0:	e88c0007 	stm	ip, {r0, r1, r2}
    b5c4:	e3a03000 	mov	r3, #0	; 0x0
    b5c8:	e1a00003 	mov	r0, r3
    b5cc:	e24bd004 	sub	sp, fp, #4	; 0x4
    b5d0:	e8bd0810 	pop	{r4, fp}
    b5d4:	e12fff1e 	bx	lr

0000b5d8 <_ZN6secelf4loadEv>:
    b5d8:	e92d4800 	push	{fp, lr}
    b5dc:	e28db004 	add	fp, sp, #4	; 0x4
    b5e0:	e24dd088 	sub	sp, sp, #136	; 0x88
    b5e4:	e50b0080 	str	r0, [fp, #-128]
    b5e8:	e3e03000 	mvn	r3, #0	; 0x0
    b5ec:	e50b3008 	str	r3, [fp, #-8]
    b5f0:	e3e03000 	mvn	r3, #0	; 0x0
    b5f4:	e50b300c 	str	r3, [fp, #-12]
    b5f8:	e3a03000 	mov	r3, #0	; 0x0
    b5fc:	e50b3010 	str	r3, [fp, #-16]
    b600:	e51b3080 	ldr	r3, [fp, #-128]
    b604:	e593203c 	ldr	r2, [r3, #60]
    b608:	e24b307c 	sub	r3, fp, #124	; 0x7c
    b60c:	e1a00002 	mov	r0, r2
    b610:	e1a01003 	mov	r1, r3
    b614:	ebfff87b 	bl	9808 <stat@plt>
    b618:	e51b3080 	ldr	r3, [fp, #-128]
    b61c:	e593303c 	ldr	r3, [r3, #60]
    b620:	e1a00003 	mov	r0, r3
    b624:	e3a01000 	mov	r1, #0	; 0x0
    b628:	ebfff879 	bl	9814 <open@plt>
    b62c:	e1a03000 	mov	r3, r0
    b630:	e50b300c 	str	r3, [fp, #-12]
    b634:	e51b300c 	ldr	r3, [fp, #-12]
    b638:	e3730001 	cmn	r3, #1	; 0x1
    b63c:	0a00001c 	beq	b6b4 <_ZN6secelf4loadEv+0xdc>
    b640:	e14b24dc 	ldrd	r2, [fp, #-76]
    b644:	e1a03002 	mov	r3, r2
    b648:	e51b200c 	ldr	r2, [fp, #-12]
    b64c:	e58d2000 	str	r2, [sp]
    b650:	e3a02000 	mov	r2, #0	; 0x0
    b654:	e58d2004 	str	r2, [sp, #4]
    b658:	e3a00000 	mov	r0, #0	; 0x0
    b65c:	e1a01003 	mov	r1, r3
    b660:	e3a02001 	mov	r2, #1	; 0x1
    b664:	e3a03001 	mov	r3, #1	; 0x1
    b668:	ebfff86c 	bl	9820 <mmap@plt>
    b66c:	e1a03000 	mov	r3, r0
    b670:	e1a02003 	mov	r2, r3
    b674:	e51b3080 	ldr	r3, [fp, #-128]
    b678:	e5832034 	str	r2, [r3, #52]
    b67c:	e51b3080 	ldr	r3, [fp, #-128]
    b680:	e5933034 	ldr	r3, [r3, #52]
    b684:	e3530000 	cmp	r3, #0	; 0x0
    b688:	1a000003 	bne	b69c <_ZN6secelf4loadEv+0xc4>
    b68c:	e51b3080 	ldr	r3, [fp, #-128]
    b690:	e3a02000 	mov	r2, #0	; 0x0
    b694:	e5832034 	str	r2, [r3, #52]
    b698:	ea000006 	b	b6b8 <_ZN6secelf4loadEv+0xe0>
    b69c:	e14b24dc 	ldrd	r2, [fp, #-76]
    b6a0:	e51b3080 	ldr	r3, [fp, #-128]
    b6a4:	e5832038 	str	r2, [r3, #56]
    b6a8:	e3a03000 	mov	r3, #0	; 0x0
    b6ac:	e50b3008 	str	r3, [fp, #-8]
    b6b0:	ea000000 	b	b6b8 <_ZN6secelf4loadEv+0xe0>
    b6b4:	e1a00000 	nop			(mov r0,r0)
    b6b8:	e51b300c 	ldr	r3, [fp, #-12]
    b6bc:	e3730001 	cmn	r3, #1	; 0x1
    b6c0:	0a000002 	beq	b6d0 <_ZN6secelf4loadEv+0xf8>
    b6c4:	e51b300c 	ldr	r3, [fp, #-12]
    b6c8:	e1a00003 	mov	r0, r3
    b6cc:	ebfff856 	bl	982c <close@plt>
    b6d0:	e51b3008 	ldr	r3, [fp, #-8]
    b6d4:	e1a00003 	mov	r0, r3
    b6d8:	e24bd004 	sub	sp, fp, #4	; 0x4
    b6dc:	e8bd8800 	pop	{fp, pc}

0000b6e0 <_ZN6secelf6unloadEv>:
    b6e0:	e92d4800 	push	{fp, lr}
    b6e4:	e28db004 	add	fp, sp, #4	; 0x4
    b6e8:	e24dd010 	sub	sp, sp, #16	; 0x10
    b6ec:	e50b0010 	str	r0, [fp, #-16]
    b6f0:	e3a03000 	mov	r3, #0	; 0x0
    b6f4:	e50b3008 	str	r3, [fp, #-8]
    b6f8:	e51b3010 	ldr	r3, [fp, #-16]
    b6fc:	e5933034 	ldr	r3, [r3, #52]
    b700:	e3530000 	cmp	r3, #0	; 0x0
    b704:	0a000006 	beq	b724 <_ZN6secelf6unloadEv+0x44>
    b708:	e51b3010 	ldr	r3, [fp, #-16]
    b70c:	e5932034 	ldr	r2, [r3, #52]
    b710:	e51b3010 	ldr	r3, [fp, #-16]
    b714:	e5933038 	ldr	r3, [r3, #56]
    b718:	e1a00002 	mov	r0, r2
    b71c:	e1a01003 	mov	r1, r3
    b720:	ebfff844 	bl	9838 <munmap@plt>
    b724:	e51b3008 	ldr	r3, [fp, #-8]
    b728:	e1a00003 	mov	r0, r3
    b72c:	e24bd004 	sub	sp, fp, #4	; 0x4
    b730:	e8bd8800 	pop	{fp, pc}

0000b734 <_ZN6secelf14readelf_headerEv>:
    b734:	e52db004 	push	{fp}		; (str fp, [sp, #-4]!)
    b738:	e28db000 	add	fp, sp, #0	; 0x0
    b73c:	e24dd014 	sub	sp, sp, #20	; 0x14
    b740:	e50b0010 	str	r0, [fp, #-16]
    b744:	e3a03000 	mov	r3, #0	; 0x0
    b748:	e50b3008 	str	r3, [fp, #-8]
    b74c:	e51b3010 	ldr	r3, [fp, #-16]
    b750:	e5933034 	ldr	r3, [r3, #52]
    b754:	e3530000 	cmp	r3, #0	; 0x0
    b758:	1a000003 	bne	b76c <_ZN6secelf14readelf_headerEv+0x38>
    b75c:	e3e03000 	mvn	r3, #0	; 0x0
    b760:	e50b3008 	str	r3, [fp, #-8]
    b764:	e51b3008 	ldr	r3, [fp, #-8]
    b768:	ea00001e 	b	b7e8 <_ZN6secelf14readelf_headerEv+0xb4>
    b76c:	e51b3010 	ldr	r3, [fp, #-16]
    b770:	e5932034 	ldr	r2, [r3, #52]
    b774:	e51b3010 	ldr	r3, [fp, #-16]
    b778:	e5832000 	str	r2, [r3]
    b77c:	e51b3010 	ldr	r3, [fp, #-16]
    b780:	e5932034 	ldr	r2, [r3, #52]
    b784:	e51b3010 	ldr	r3, [fp, #-16]
    b788:	e5933000 	ldr	r3, [r3]
    b78c:	e5933020 	ldr	r3, [r3, #32]
    b790:	e0822003 	add	r2, r2, r3
    b794:	e51b3010 	ldr	r3, [fp, #-16]
    b798:	e5832004 	str	r2, [r3, #4]
    b79c:	e51b3010 	ldr	r3, [fp, #-16]
    b7a0:	e5933000 	ldr	r3, [r3]
    b7a4:	e1d323b0 	ldrh	r2, [r3, #48]
    b7a8:	e51b3010 	ldr	r3, [fp, #-16]
    b7ac:	e1c320bc 	strh	r2, [r3, #12]
    b7b0:	e51b3010 	ldr	r3, [fp, #-16]
    b7b4:	e5932034 	ldr	r2, [r3, #52]
    b7b8:	e51b3010 	ldr	r3, [fp, #-16]
    b7bc:	e5933000 	ldr	r3, [r3]
    b7c0:	e593301c 	ldr	r3, [r3, #28]
    b7c4:	e0822003 	add	r2, r2, r3
    b7c8:	e51b3010 	ldr	r3, [fp, #-16]
    b7cc:	e5832008 	str	r2, [r3, #8]
    b7d0:	e51b3010 	ldr	r3, [fp, #-16]
    b7d4:	e5933000 	ldr	r3, [r3]
    b7d8:	e1d322bc 	ldrh	r2, [r3, #44]
    b7dc:	e51b3010 	ldr	r3, [fp, #-16]
    b7e0:	e1c320be 	strh	r2, [r3, #14]
    b7e4:	e51b3008 	ldr	r3, [fp, #-8]
    b7e8:	e1a00003 	mov	r0, r3
    b7ec:	e28bd000 	add	sp, fp, #0	; 0x0
    b7f0:	e8bd0800 	pop	{fp}
    b7f4:	e12fff1e 	bx	lr

0000b7f8 <_ZN6secelf15readelf_sectionEv>:
    b7f8:	e92d4800 	push	{fp, lr}
    b7fc:	e28db004 	add	fp, sp, #4	; 0x4
    b800:	e24dd010 	sub	sp, sp, #16	; 0x10
    b804:	e50b0010 	str	r0, [fp, #-16]
    b808:	e3a03000 	mov	r3, #0	; 0x0
    b80c:	e50b3008 	str	r3, [fp, #-8]
    b810:	e51b3010 	ldr	r3, [fp, #-16]
    b814:	e5931004 	ldr	r1, [r3, #4]
    b818:	e51b3010 	ldr	r3, [fp, #-16]
    b81c:	e5933000 	ldr	r3, [r3]
    b820:	e1d333b2 	ldrh	r3, [r3, #50]
    b824:	e1a02003 	mov	r2, r3
    b828:	e1a03002 	mov	r3, r2
    b82c:	e1a03103 	lsl	r3, r3, #2
    b830:	e0833002 	add	r3, r3, r2
    b834:	e1a03183 	lsl	r3, r3, #3
    b838:	e0812003 	add	r2, r1, r3
    b83c:	e51b3010 	ldr	r3, [fp, #-16]
    b840:	e5832014 	str	r2, [r3, #20]
    b844:	e51b0010 	ldr	r0, [fp, #-16]
    b848:	e59f304c 	ldr	r3, [pc, #76]	; b89c <_ZN6secelf15readelf_sectionEv+0xa4>
    b84c:	e08f3003 	add	r3, pc, r3
    b850:	e1a01003 	mov	r1, r3
    b854:	eb000091 	bl	baa0 <_ZN6secelf13query_sectionEPKc>
    b858:	e1a03000 	mov	r3, r0
    b85c:	e1a02003 	mov	r2, r3
    b860:	e51b3010 	ldr	r3, [fp, #-16]
    b864:	e5832010 	str	r2, [r3, #16]
    b868:	e51b0010 	ldr	r0, [fp, #-16]
    b86c:	e59f302c 	ldr	r3, [pc, #44]	; b8a0 <_ZN6secelf15readelf_sectionEv+0xa8>
    b870:	e08f3003 	add	r3, pc, r3
    b874:	e1a01003 	mov	r1, r3
    b878:	eb000088 	bl	baa0 <_ZN6secelf13query_sectionEPKc>
    b87c:	e1a03000 	mov	r3, r0
    b880:	e1a02003 	mov	r2, r3
    b884:	e51b3010 	ldr	r3, [fp, #-16]
    b888:	e5832018 	str	r2, [r3, #24]
    b88c:	e51b3008 	ldr	r3, [fp, #-8]
    b890:	e1a00003 	mov	r0, r3
    b894:	e24bd004 	sub	sp, fp, #4	; 0x4
    b898:	e8bd8800 	pop	{fp, pc}
    b89c:	0001b218 	.word	0x0001b218
    b8a0:	0001b1fc 	.word	0x0001b1fc

0000b8a4 <_ZN6secelf15readelf_dynamicEv>:
    b8a4:	e92d4800 	push	{fp, lr}
    b8a8:	e28db004 	add	fp, sp, #4	; 0x4
    b8ac:	e24dd010 	sub	sp, sp, #16	; 0x10
    b8b0:	e50b0010 	str	r0, [fp, #-16]
    b8b4:	e3a03000 	mov	r3, #0	; 0x0
    b8b8:	e50b3008 	str	r3, [fp, #-8]
    b8bc:	e51b3010 	ldr	r3, [fp, #-16]
    b8c0:	e5932034 	ldr	r2, [r3, #52]
    b8c4:	e51b3010 	ldr	r3, [fp, #-16]
    b8c8:	e5933018 	ldr	r3, [r3, #24]
    b8cc:	e5933010 	ldr	r3, [r3, #16]
    b8d0:	e0822003 	add	r2, r2, r3
    b8d4:	e51b3010 	ldr	r3, [fp, #-16]
    b8d8:	e583201c 	str	r2, [r3, #28]
    b8dc:	e51b0010 	ldr	r0, [fp, #-16]
    b8e0:	e3a01016 	mov	r1, #22	; 0x16
    b8e4:	eb0000aa 	bl	bb94 <_ZN6secelf13query_dynamicEj>
    b8e8:	e1a03000 	mov	r3, r0
    b8ec:	e3530000 	cmp	r3, #0	; 0x0
    b8f0:	03a03000 	moveq	r3, #0	; 0x0
    b8f4:	13a03001 	movne	r3, #1	; 0x1
    b8f8:	e20330ff 	and	r3, r3, #255	; 0xff
    b8fc:	e3530000 	cmp	r3, #0	; 0x0
    b900:	0a000003 	beq	b914 <_ZN6secelf15readelf_dynamicEv+0x70>
    b904:	e51b3010 	ldr	r3, [fp, #-16]
    b908:	e3a02000 	mov	r2, #0	; 0x0
    b90c:	e5c32030 	strb	r2, [r3, #48]
    b910:	ea000002 	b	b920 <_ZN6secelf15readelf_dynamicEv+0x7c>
    b914:	e51b3010 	ldr	r3, [fp, #-16]
    b918:	e3a02001 	mov	r2, #1	; 0x1
    b91c:	e5c32030 	strb	r2, [r3, #48]
    b920:	e51b3008 	ldr	r3, [fp, #-8]
    b924:	e1a00003 	mov	r0, r3
    b928:	e24bd004 	sub	sp, fp, #4	; 0x4
    b92c:	e8bd8800 	pop	{fp, pc}

0000b930 <_ZN6secelf11readelf_relEv>:
    b930:	e92d4800 	push	{fp, lr}
    b934:	e28db004 	add	fp, sp, #4	; 0x4
    b938:	e24dd010 	sub	sp, sp, #16	; 0x10
    b93c:	e50b0010 	str	r0, [fp, #-16]
    b940:	e3a03000 	mov	r3, #0	; 0x0
    b944:	e50b3008 	str	r3, [fp, #-8]
    b948:	e3a03000 	mov	r3, #0	; 0x0
    b94c:	e50b300c 	str	r3, [fp, #-12]
    b950:	e51b0010 	ldr	r0, [fp, #-16]
    b954:	e3a01011 	mov	r1, #17	; 0x11
    b958:	eb00008d 	bl	bb94 <_ZN6secelf13query_dynamicEj>
    b95c:	e1a03000 	mov	r3, r0
    b960:	e50b300c 	str	r3, [fp, #-12]
    b964:	e51b3010 	ldr	r3, [fp, #-16]
    b968:	e5932034 	ldr	r2, [r3, #52]
    b96c:	e51b300c 	ldr	r3, [fp, #-12]
    b970:	e5933004 	ldr	r3, [r3, #4]
    b974:	e0822003 	add	r2, r2, r3
    b978:	e51b3010 	ldr	r3, [fp, #-16]
    b97c:	e5832020 	str	r2, [r3, #32]
    b980:	e51b0010 	ldr	r0, [fp, #-16]
    b984:	e3a01017 	mov	r1, #23	; 0x17
    b988:	eb000081 	bl	bb94 <_ZN6secelf13query_dynamicEj>
    b98c:	e1a03000 	mov	r3, r0
    b990:	e50b300c 	str	r3, [fp, #-12]
    b994:	e51b3010 	ldr	r3, [fp, #-16]
    b998:	e5932034 	ldr	r2, [r3, #52]
    b99c:	e51b300c 	ldr	r3, [fp, #-12]
    b9a0:	e5933004 	ldr	r3, [r3, #4]
    b9a4:	e0822003 	add	r2, r2, r3
    b9a8:	e51b3010 	ldr	r3, [fp, #-16]
    b9ac:	e5832024 	str	r2, [r3, #36]
    b9b0:	e51b0010 	ldr	r0, [fp, #-16]
    b9b4:	e3a01012 	mov	r1, #18	; 0x12
    b9b8:	eb000075 	bl	bb94 <_ZN6secelf13query_dynamicEj>
    b9bc:	e1a03000 	mov	r3, r0
    b9c0:	e50b300c 	str	r3, [fp, #-12]
    b9c4:	e51b300c 	ldr	r3, [fp, #-12]
    b9c8:	e5932004 	ldr	r2, [r3, #4]
    b9cc:	e51b3010 	ldr	r3, [fp, #-16]
    b9d0:	e5832028 	str	r2, [r3, #40]
    b9d4:	e51b0010 	ldr	r0, [fp, #-16]
    b9d8:	e3a01002 	mov	r1, #2	; 0x2
    b9dc:	eb00006c 	bl	bb94 <_ZN6secelf13query_dynamicEj>
    b9e0:	e1a03000 	mov	r3, r0
    b9e4:	e50b300c 	str	r3, [fp, #-12]
    b9e8:	e51b300c 	ldr	r3, [fp, #-12]
    b9ec:	e5932004 	ldr	r2, [r3, #4]
    b9f0:	e51b3010 	ldr	r3, [fp, #-16]
    b9f4:	e583202c 	str	r2, [r3, #44]
    b9f8:	e51b3008 	ldr	r3, [fp, #-8]
    b9fc:	e1a00003 	mov	r0, r3
    ba00:	e24bd004 	sub	sp, fp, #4	; 0x4
    ba04:	e8bd8800 	pop	{fp, pc}

0000ba08 <_ZN6secelf12readelf_codeEP8sec_code>:
    ba08:	e52db004 	push	{fp}		; (str fp, [sp, #-4]!)
    ba0c:	e28db000 	add	fp, sp, #0	; 0x0
    ba10:	e24dd014 	sub	sp, sp, #20	; 0x14
    ba14:	e50b0010 	str	r0, [fp, #-16]
    ba18:	e50b1014 	str	r1, [fp, #-20]
    ba1c:	e3a03000 	mov	r3, #0	; 0x0
    ba20:	e50b3008 	str	r3, [fp, #-8]
    ba24:	e51b3014 	ldr	r3, [fp, #-20]
    ba28:	e3530000 	cmp	r3, #0	; 0x0
    ba2c:	0a000003 	beq	ba40 <_ZN6secelf12readelf_codeEP8sec_code+0x38>
    ba30:	e51b3010 	ldr	r3, [fp, #-16]
    ba34:	e5933010 	ldr	r3, [r3, #16]
    ba38:	e3530000 	cmp	r3, #0	; 0x0
    ba3c:	1a000003 	bne	ba50 <_ZN6secelf12readelf_codeEP8sec_code+0x48>
    ba40:	e3e03000 	mvn	r3, #0	; 0x0
    ba44:	e50b3008 	str	r3, [fp, #-8]
    ba48:	e51b3008 	ldr	r3, [fp, #-8]
    ba4c:	ea00000f 	b	ba90 <_ZN6secelf12readelf_codeEP8sec_code+0x88>
    ba50:	e51b3010 	ldr	r3, [fp, #-16]
    ba54:	e5933010 	ldr	r3, [r3, #16]
    ba58:	e5932010 	ldr	r2, [r3, #16]
    ba5c:	e51b3014 	ldr	r3, [fp, #-20]
    ba60:	e5832004 	str	r2, [r3, #4]
    ba64:	e51b3010 	ldr	r3, [fp, #-16]
    ba68:	e5933010 	ldr	r3, [r3, #16]
    ba6c:	e593200c 	ldr	r2, [r3, #12]
    ba70:	e51b3014 	ldr	r3, [fp, #-20]
    ba74:	e5832008 	str	r2, [r3, #8]
    ba78:	e51b3010 	ldr	r3, [fp, #-16]
    ba7c:	e5933010 	ldr	r3, [r3, #16]
    ba80:	e5932014 	ldr	r2, [r3, #20]
    ba84:	e51b3014 	ldr	r3, [fp, #-20]
    ba88:	e5832000 	str	r2, [r3]
    ba8c:	e51b3008 	ldr	r3, [fp, #-8]
    ba90:	e1a00003 	mov	r0, r3
    ba94:	e28bd000 	add	sp, fp, #0	; 0x0
    ba98:	e8bd0800 	pop	{fp}
    ba9c:	e12fff1e 	bx	lr

0000baa0 <_ZN6secelf13query_sectionEPKc>:
    baa0:	e92d4800 	push	{fp, lr}
    baa4:	e28db004 	add	fp, sp, #4	; 0x4
    baa8:	e24dd018 	sub	sp, sp, #24	; 0x18
    baac:	e50b0018 	str	r0, [fp, #-24]
    bab0:	e50b101c 	str	r1, [fp, #-28]
    bab4:	e3a03000 	mov	r3, #0	; 0x0
    bab8:	e50b300c 	str	r3, [fp, #-12]
    babc:	e51b3018 	ldr	r3, [fp, #-24]
    bac0:	e5932034 	ldr	r2, [r3, #52]
    bac4:	e51b3018 	ldr	r3, [fp, #-24]
    bac8:	e5933014 	ldr	r3, [r3, #20]
    bacc:	e5933010 	ldr	r3, [r3, #16]
    bad0:	e0823003 	add	r3, r2, r3
    bad4:	e50b300c 	str	r3, [fp, #-12]
    bad8:	e3a03000 	mov	r3, #0	; 0x0
    badc:	e50b3008 	str	r3, [fp, #-8]
    bae0:	ea00001d 	b	bb5c <_ZN6secelf13query_sectionEPKc+0xbc>
    bae4:	e51b3018 	ldr	r3, [fp, #-24]
    bae8:	e5931004 	ldr	r1, [r3, #4]
    baec:	e51b2008 	ldr	r2, [fp, #-8]
    baf0:	e1a03002 	mov	r3, r2
    baf4:	e1a03103 	lsl	r3, r3, #2
    baf8:	e0833002 	add	r3, r3, r2
    bafc:	e1a03183 	lsl	r3, r3, #3
    bb00:	e0813003 	add	r3, r1, r3
    bb04:	e5933000 	ldr	r3, [r3]
    bb08:	e51b200c 	ldr	r2, [fp, #-12]
    bb0c:	e0823003 	add	r3, r2, r3
    bb10:	e50b3010 	str	r3, [fp, #-16]
    bb14:	e51b001c 	ldr	r0, [fp, #-28]
    bb18:	e51b1010 	ldr	r1, [fp, #-16]
    bb1c:	ebfff748 	bl	9844 <strcmp@plt>
    bb20:	e1a03000 	mov	r3, r0
    bb24:	e3530000 	cmp	r3, #0	; 0x0
    bb28:	1a000008 	bne	bb50 <_ZN6secelf13query_sectionEPKc+0xb0>
    bb2c:	e51b3018 	ldr	r3, [fp, #-24]
    bb30:	e5931004 	ldr	r1, [r3, #4]
    bb34:	e51b2008 	ldr	r2, [fp, #-8]
    bb38:	e1a03002 	mov	r3, r2
    bb3c:	e1a03103 	lsl	r3, r3, #2
    bb40:	e0833002 	add	r3, r3, r2
    bb44:	e1a03183 	lsl	r3, r3, #3
    bb48:	e0813003 	add	r3, r1, r3
    bb4c:	ea00000d 	b	bb88 <_ZN6secelf13query_sectionEPKc+0xe8>
    bb50:	e51b3008 	ldr	r3, [fp, #-8]
    bb54:	e2833001 	add	r3, r3, #1	; 0x1
    bb58:	e50b3008 	str	r3, [fp, #-8]
    bb5c:	e51b3018 	ldr	r3, [fp, #-24]
    bb60:	e1d330bc 	ldrh	r3, [r3, #12]
    bb64:	e1a02003 	mov	r2, r3
    bb68:	e51b3008 	ldr	r3, [fp, #-8]
    bb6c:	e1520003 	cmp	r2, r3
    bb70:	93a03000 	movls	r3, #0	; 0x0
    bb74:	83a03001 	movhi	r3, #1	; 0x1
    bb78:	e20330ff 	and	r3, r3, #255	; 0xff
    bb7c:	e3530000 	cmp	r3, #0	; 0x0
    bb80:	1affffd7 	bne	bae4 <_ZN6secelf13query_sectionEPKc+0x44>
    bb84:	e3a03000 	mov	r3, #0	; 0x0
    bb88:	e1a00003 	mov	r0, r3
    bb8c:	e24bd004 	sub	sp, fp, #4	; 0x4
    bb90:	e8bd8800 	pop	{fp, pc}

0000bb94 <_ZN6secelf13query_dynamicEj>:
    bb94:	e52db004 	push	{fp}		; (str fp, [sp, #-4]!)
    bb98:	e28db000 	add	fp, sp, #0	; 0x0
    bb9c:	e24dd014 	sub	sp, sp, #20	; 0x14
    bba0:	e50b0010 	str	r0, [fp, #-16]
    bba4:	e50b1014 	str	r1, [fp, #-20]
    bba8:	e51b3010 	ldr	r3, [fp, #-16]
    bbac:	e593301c 	ldr	r3, [r3, #28]
    bbb0:	e50b3008 	str	r3, [fp, #-8]
    bbb4:	e51b3008 	ldr	r3, [fp, #-8]
    bbb8:	e3530000 	cmp	r3, #0	; 0x0
    bbbc:	1a00000c 	bne	bbf4 <_ZN6secelf13query_dynamicEj+0x60>
    bbc0:	e3a03000 	mov	r3, #0	; 0x0
    bbc4:	ea000013 	b	bc18 <_ZN6secelf13query_dynamicEj+0x84>
    bbc8:	e51b3008 	ldr	r3, [fp, #-8]
    bbcc:	e5933000 	ldr	r3, [r3]
    bbd0:	e1a02003 	mov	r2, r3
    bbd4:	e51b3014 	ldr	r3, [fp, #-20]
    bbd8:	e1520003 	cmp	r2, r3
    bbdc:	1a000001 	bne	bbe8 <_ZN6secelf13query_dynamicEj+0x54>
    bbe0:	e51b3008 	ldr	r3, [fp, #-8]
    bbe4:	ea00000b 	b	bc18 <_ZN6secelf13query_dynamicEj+0x84>
    bbe8:	e51b3008 	ldr	r3, [fp, #-8]
    bbec:	e2833008 	add	r3, r3, #8	; 0x8
    bbf0:	e50b3008 	str	r3, [fp, #-8]
    bbf4:	e51b3008 	ldr	r3, [fp, #-8]
    bbf8:	e5933000 	ldr	r3, [r3]
    bbfc:	e3530000 	cmp	r3, #0	; 0x0
    bc00:	03a03000 	moveq	r3, #0	; 0x0
    bc04:	13a03001 	movne	r3, #1	; 0x1
    bc08:	e20330ff 	and	r3, r3, #255	; 0xff
    bc0c:	e3530000 	cmp	r3, #0	; 0x0
    bc10:	1affffec 	bne	bbc8 <_ZN6secelf13query_dynamicEj+0x34>
    bc14:	e3a03000 	mov	r3, #0	; 0x0
    bc18:	e1a00003 	mov	r0, r3
    bc1c:	e28bd000 	add	sp, fp, #0	; 0x0
    bc20:	e8bd0800 	pop	{fp}
    bc24:	e12fff1e 	bx	lr

0000bc28 <_ZL14secheck_threadPv>:
    bc28:	e92d4800 	push	{fp, lr}
    bc2c:	e28db004 	add	fp, sp, #4	; 0x4
    bc30:	e24dd018 	sub	sp, sp, #24	; 0x18
    bc34:	e50b0010 	str	r0, [fp, #-16]
    bc38:	e51b3010 	ldr	r3, [fp, #-16]
    bc3c:	e50b3008 	str	r3, [fp, #-8]
    bc40:	e51b3008 	ldr	r3, [fp, #-8]
    bc44:	e5933004 	ldr	r3, [r3, #4]
    bc48:	e50b300c 	str	r3, [fp, #-12]
    bc4c:	e51b3008 	ldr	r3, [fp, #-8]
    bc50:	e3530000 	cmp	r3, #0	; 0x0
    bc54:	0a000002 	beq	bc64 <_ZL14secheck_threadPv+0x3c>
    bc58:	e51b300c 	ldr	r3, [fp, #-12]
    bc5c:	e3530000 	cmp	r3, #0	; 0x0
    bc60:	1a000009 	bne	bc8c <_ZL14secheck_threadPv+0x64>
    bc64:	e3a00003 	mov	r0, #3	; 0x3
    bc68:	e59f30f4 	ldr	r3, [pc, #244]	; bd64 <_ZL14secheck_threadPv+0x13c>
    bc6c:	e08f3003 	add	r3, pc, r3
    bc70:	e1a01003 	mov	r1, r3
    bc74:	e59f30ec 	ldr	r3, [pc, #236]	; bd68 <_ZL14secheck_threadPv+0x140>
    bc78:	e08f3003 	add	r3, pc, r3
    bc7c:	e1a02003 	mov	r2, r3
    bc80:	ebfff6bf 	bl	9784 <__android_log_print@plt>
    bc84:	e3a00000 	mov	r0, #0	; 0x0
    bc88:	ebfff6c0 	bl	9790 <exit@plt>
    bc8c:	e51b3008 	ldr	r3, [fp, #-8]
    bc90:	e5933000 	ldr	r3, [r3]
    bc94:	e3530002 	cmp	r3, #2	; 0x2
    bc98:	0a000018 	beq	bd00 <_ZL14secheck_threadPv+0xd8>
    bc9c:	e3530003 	cmp	r3, #3	; 0x3
    bca0:	0a000021 	beq	bd2c <_ZL14secheck_threadPv+0x104>
    bca4:	e3530001 	cmp	r3, #1	; 0x1
    bca8:	1a00002a 	bne	bd58 <_ZL14secheck_threadPv+0x130>
    bcac:	e51b3008 	ldr	r3, [fp, #-8]
    bcb0:	e283c008 	add	ip, r3, #8	; 0x8
    bcb4:	e51b3008 	ldr	r3, [fp, #-8]
    bcb8:	e2833008 	add	r3, r3, #8	; 0x8
    bcbc:	e58d3000 	str	r3, [sp]
    bcc0:	e3a00003 	mov	r0, #3	; 0x3
    bcc4:	e59f30a0 	ldr	r3, [pc, #160]	; bd6c <_ZL14secheck_threadPv+0x144>
    bcc8:	e08f3003 	add	r3, pc, r3
    bccc:	e1a01003 	mov	r1, r3
    bcd0:	e59f3098 	ldr	r3, [pc, #152]	; bd70 <_ZL14secheck_threadPv+0x148>
    bcd4:	e08f3003 	add	r3, pc, r3
    bcd8:	e1a02003 	mov	r2, r3
    bcdc:	e1a0300c 	mov	r3, ip
    bce0:	ebfff6a7 	bl	9784 <__android_log_print@plt>
    bce4:	e51b3008 	ldr	r3, [fp, #-8]
    bce8:	e2833008 	add	r3, r3, #8	; 0x8
    bcec:	e51b000c 	ldr	r0, [fp, #-12]
    bcf0:	e1a01003 	mov	r1, r3
    bcf4:	e3a02001 	mov	r2, #1	; 0x1
    bcf8:	eb000137 	bl	c1dc <_ZN7secheck13check_so_textEPKcj>
    bcfc:	ea000015 	b	bd58 <_ZL14secheck_threadPv+0x130>
    bd00:	e3a00003 	mov	r0, #3	; 0x3
    bd04:	e59f3068 	ldr	r3, [pc, #104]	; bd74 <_ZL14secheck_threadPv+0x14c>
    bd08:	e08f3003 	add	r3, pc, r3
    bd0c:	e1a01003 	mov	r1, r3
    bd10:	e59f3060 	ldr	r3, [pc, #96]	; bd78 <_ZL14secheck_threadPv+0x150>
    bd14:	e08f3003 	add	r3, pc, r3
    bd18:	e1a02003 	mov	r2, r3
    bd1c:	ebfff698 	bl	9784 <__android_log_print@plt>
    bd20:	e51b000c 	ldr	r0, [fp, #-12]
    bd24:	eb000364 	bl	cabc <_ZN7secheck16check_anti_debugEv>
    bd28:	ea00000a 	b	bd58 <_ZL14secheck_threadPv+0x130>
    bd2c:	e3a00003 	mov	r0, #3	; 0x3
    bd30:	e59f3044 	ldr	r3, [pc, #68]	; bd7c <_ZL14secheck_threadPv+0x154>
    bd34:	e08f3003 	add	r3, pc, r3
    bd38:	e1a01003 	mov	r1, r3
    bd3c:	e59f303c 	ldr	r3, [pc, #60]	; bd80 <_ZL14secheck_threadPv+0x158>
    bd40:	e08f3003 	add	r3, pc, r3
    bd44:	e1a02003 	mov	r2, r3
    bd48:	ebfff68d 	bl	9784 <__android_log_print@plt>
    bd4c:	e51b000c 	ldr	r0, [fp, #-12]
    bd50:	eb00036f 	bl	cb14 <_ZN7secheck11check_ilsecEv>
    bd54:	e1a00000 	nop			(mov r0,r0)
    bd58:	e1a00003 	mov	r0, r3
    bd5c:	e24bd004 	sub	sp, fp, #4	; 0x4
    bd60:	e8bd8800 	pop	{fp, pc}
    bd64:	0001ae0c 	.word	0x0001ae0c
    bd68:	0001ae0c 	.word	0x0001ae0c
    bd6c:	0001adb0 	.word	0x0001adb0
    bd70:	0001addc 	.word	0x0001addc
    bd74:	0001ad70 	.word	0x0001ad70
    bd78:	0001adbc 	.word	0x0001adbc
    bd7c:	0001ad44 	.word	0x0001ad44
    bd80:	0001adac 	.word	0x0001adac

0000bd84 <_ZN7secheckC1Ev>:
    bd84:	e92d4800 	push	{fp, lr}
    bd88:	e28db004 	add	fp, sp, #4	; 0x4
    bd8c:	e24dd008 	sub	sp, sp, #8	; 0x8
    bd90:	e50b0008 	str	r0, [fp, #-8]
    bd94:	e59f3084 	ldr	r3, [pc, #132]	; be20 <_ZN7secheckC1Ev+0x9c>
    bd98:	e08f3003 	add	r3, pc, r3
    bd9c:	e59f2080 	ldr	r2, [pc, #128]	; be24 <_ZN7secheckC1Ev+0xa0>
    bda0:	e7933002 	ldr	r3, [r3, r2]
    bda4:	e5932000 	ldr	r2, [r3]
    bda8:	e51b3008 	ldr	r3, [fp, #-8]
    bdac:	e5832004 	str	r2, [r3, #4]
    bdb0:	e59f3070 	ldr	r3, [pc, #112]	; be28 <_ZN7secheckC1Ev+0xa4>
    bdb4:	e08f3003 	add	r3, pc, r3
    bdb8:	e1a00003 	mov	r0, r3
    bdbc:	ebfff6a3 	bl	9850 <setjmp@plt>
    bdc0:	e1a03000 	mov	r3, r0
    bdc4:	e3530000 	cmp	r3, #0	; 0x0
    bdc8:	03a03000 	moveq	r3, #0	; 0x0
    bdcc:	13a03001 	movne	r3, #1	; 0x1
    bdd0:	e20330ff 	and	r3, r3, #255	; 0xff
    bdd4:	e3530000 	cmp	r3, #0	; 0x0
    bdd8:	0a000001 	beq	bde4 <_ZN7secheckC1Ev+0x60>
    bddc:	eb003766 	bl	19b7c <_Z8dispatchv>
    bde0:	ea00000a 	b	be10 <_ZN7secheckC1Ev+0x8c>
    bde4:	e51b3008 	ldr	r3, [fp, #-8]
    bde8:	e5932004 	ldr	r2, [r3, #4]
    bdec:	e59f3038 	ldr	r3, [pc, #56]	; be2c <_ZN7secheckC1Ev+0xa8>
    bdf0:	e08f3003 	add	r3, pc, r3
    bdf4:	e1a00003 	mov	r0, r3
    bdf8:	e1a01002 	mov	r1, r2
    bdfc:	ebfffc22 	bl	ae8c <_Z10pool_startPFPvS_Ej>
    be00:	e1a03000 	mov	r3, r0
    be04:	e1a02003 	mov	r2, r3
    be08:	e51b3008 	ldr	r3, [fp, #-8]
    be0c:	e5832000 	str	r2, [r3]
    be10:	e51b3008 	ldr	r3, [fp, #-8]
    be14:	e1a00003 	mov	r0, r3
    be18:	e24bd004 	sub	sp, fp, #4	; 0x4
    be1c:	e8bd8800 	pop	{fp, pc}
    be20:	0001f110 	.word	0x0001f110
    be24:	fffffe50 	.word	0xfffffe50
    be28:	0001f770 	.word	0x0001f770
    be2c:	fffffe30 	.word	0xfffffe30

0000be30 <_ZN7secheckD1Ev>:
    be30:	e52db004 	push	{fp}		; (str fp, [sp, #-4]!)
    be34:	e28db000 	add	fp, sp, #0	; 0x0
    be38:	e24dd00c 	sub	sp, sp, #12	; 0xc
    be3c:	e50b0008 	str	r0, [fp, #-8]
    be40:	e51b3008 	ldr	r3, [fp, #-8]
    be44:	e1a00003 	mov	r0, r3
    be48:	e28bd000 	add	sp, fp, #0	; 0x0
    be4c:	e8bd0800 	pop	{fp}
    be50:	e12fff1e 	bx	lr

0000be54 <_ZN7secheck6doworkEPv>:
    be54:	e92d4800 	push	{fp, lr}
    be58:	e28db004 	add	fp, sp, #4	; 0x4
    be5c:	e24dd028 	sub	sp, sp, #40	; 0x28
    be60:	e50b0018 	str	r0, [fp, #-24]
    be64:	e50b101c 	str	r1, [fp, #-28]
    be68:	e59f2304 	ldr	r2, [pc, #772]	; c174 <_ZN7secheck6doworkEPv+0x320>
    be6c:	e50b2020 	str	r2, [fp, #-32]
    be70:	e51b3020 	ldr	r3, [fp, #-32]
    be74:	e08f3003 	add	r3, pc, r3
    be78:	e50b3020 	str	r3, [fp, #-32]
    be7c:	e3a03000 	mov	r3, #0	; 0x0
    be80:	e50b300c 	str	r3, [fp, #-12]
    be84:	e3a03000 	mov	r3, #0	; 0x0
    be88:	e50b3010 	str	r3, [fp, #-16]
    be8c:	e3a00003 	mov	r0, #3	; 0x3
    be90:	e59f32e0 	ldr	r3, [pc, #736]	; c178 <_ZN7secheck6doworkEPv+0x324>
    be94:	e08f3003 	add	r3, pc, r3
    be98:	e1a01003 	mov	r1, r3
    be9c:	e59f32d8 	ldr	r3, [pc, #728]	; c17c <_ZN7secheck6doworkEPv+0x328>
    bea0:	e08f3003 	add	r3, pc, r3
    bea4:	e1a02003 	mov	r2, r3
    bea8:	ebfff635 	bl	9784 <__android_log_print@plt>
    beac:	e59f32cc 	ldr	r3, [pc, #716]	; c180 <_ZN7secheck6doworkEPv+0x32c>
    beb0:	e08f3003 	add	r3, pc, r3
    beb4:	e1a00003 	mov	r0, r3
    beb8:	ebfff664 	bl	9850 <setjmp@plt>
    bebc:	e1a03000 	mov	r3, r0
    bec0:	e3530000 	cmp	r3, #0	; 0x0
    bec4:	03a03000 	moveq	r3, #0	; 0x0
    bec8:	13a03001 	movne	r3, #1	; 0x1
    becc:	e20330ff 	and	r3, r3, #255	; 0xff
    bed0:	e3530000 	cmp	r3, #0	; 0x0
    bed4:	0a000001 	beq	bee0 <_ZN7secheck6doworkEPv+0x8c>
    bed8:	eb003727 	bl	19b7c <_Z8dispatchv>
    bedc:	ea0000a2 	b	c16c <_ZN7secheck6doworkEPv+0x318>
    bee0:	e59f329c 	ldr	r3, [pc, #668]	; c184 <_ZN7secheck6doworkEPv+0x330>
    bee4:	e51b2020 	ldr	r2, [fp, #-32]
    bee8:	e7923003 	ldr	r3, [r2, r3]
    beec:	e5933000 	ldr	r3, [r3]
    bef0:	e3530000 	cmp	r3, #0	; 0x0
    bef4:	0a000048 	beq	c01c <_ZN7secheck6doworkEPv+0x1c8>
    bef8:	e59f3288 	ldr	r3, [pc, #648]	; c188 <_ZN7secheck6doworkEPv+0x334>
    befc:	e51b2020 	ldr	r2, [fp, #-32]
    bf00:	e7923003 	ldr	r3, [r2, r3]
    bf04:	e50b3008 	str	r3, [fp, #-8]
    bf08:	ea000038 	b	bff0 <_ZN7secheck6doworkEPv+0x19c>
    bf0c:	e51b0008 	ldr	r0, [fp, #-8]
    bf10:	e3a0105d 	mov	r1, #93	; 0x5d
    bf14:	ebfff650 	bl	985c <strchr@plt>
    bf18:	e50b0014 	str	r0, [fp, #-20]
    bf1c:	e3a0308c 	mov	r3, #140	; 0x8c
    bf20:	e50b300c 	str	r3, [fp, #-12]
    bf24:	e51b300c 	ldr	r3, [fp, #-12]
    bf28:	e1a00003 	mov	r0, r3
    bf2c:	ebfff605 	bl	9748 <malloc@plt>
    bf30:	e1a03000 	mov	r3, r0
    bf34:	e50b3010 	str	r3, [fp, #-16]
    bf38:	e51b300c 	ldr	r3, [fp, #-12]
    bf3c:	e51b0010 	ldr	r0, [fp, #-16]
    bf40:	e3a01000 	mov	r1, #0	; 0x0
    bf44:	e1a02003 	mov	r2, r3
    bf48:	ebfff601 	bl	9754 <memset@plt>
    bf4c:	e51b3010 	ldr	r3, [fp, #-16]
    bf50:	e3a02001 	mov	r2, #1	; 0x1
    bf54:	e5832000 	str	r2, [r3]
    bf58:	e51b3010 	ldr	r3, [fp, #-16]
    bf5c:	e51b2018 	ldr	r2, [fp, #-24]
    bf60:	e5832004 	str	r2, [r3, #4]
    bf64:	e51b3010 	ldr	r3, [fp, #-16]
    bf68:	e2831008 	add	r1, r3, #8	; 0x8
    bf6c:	e51b3008 	ldr	r3, [fp, #-8]
    bf70:	e2832001 	add	r2, r3, #1	; 0x1
    bf74:	e51b0014 	ldr	r0, [fp, #-20]
    bf78:	e51b3008 	ldr	r3, [fp, #-8]
    bf7c:	e0633000 	rsb	r3, r3, r0
    bf80:	e2433001 	sub	r3, r3, #1	; 0x1
    bf84:	e1a00001 	mov	r0, r1
    bf88:	e1a01002 	mov	r1, r2
    bf8c:	e1a02003 	mov	r2, r3
    bf90:	ebfff5f2 	bl	9760 <memcpy@plt>
    bf94:	e51b3010 	ldr	r3, [fp, #-16]
    bf98:	e283c008 	add	ip, r3, #8	; 0x8
    bf9c:	e51b3010 	ldr	r3, [fp, #-16]
    bfa0:	e2833008 	add	r3, r3, #8	; 0x8
    bfa4:	e58d3000 	str	r3, [sp]
    bfa8:	e3a00003 	mov	r0, #3	; 0x3
    bfac:	e59f31d8 	ldr	r3, [pc, #472]	; c18c <_ZN7secheck6doworkEPv+0x338>
    bfb0:	e08f3003 	add	r3, pc, r3
    bfb4:	e1a01003 	mov	r1, r3
    bfb8:	e59f31d0 	ldr	r3, [pc, #464]	; c190 <_ZN7secheck6doworkEPv+0x33c>
    bfbc:	e08f3003 	add	r3, pc, r3
    bfc0:	e1a02003 	mov	r2, r3
    bfc4:	e1a0300c 	mov	r3, ip
    bfc8:	ebfff5ed 	bl	9784 <__android_log_print@plt>
    bfcc:	e51b3018 	ldr	r3, [fp, #-24]
    bfd0:	e5933000 	ldr	r3, [r3]
    bfd4:	e1a00003 	mov	r0, r3
    bfd8:	e51b1010 	ldr	r1, [fp, #-16]
    bfdc:	e3a02000 	mov	r2, #0	; 0x0
    bfe0:	ebfffbf0 	bl	afa8 <_Z12pool_enqueuePvS_c>
    bfe4:	e51b3008 	ldr	r3, [fp, #-8]
    bfe8:	e2833001 	add	r3, r3, #1	; 0x1
    bfec:	e50b3008 	str	r3, [fp, #-8]
    bff0:	e51b0008 	ldr	r0, [fp, #-8]
    bff4:	e3a0105b 	mov	r1, #91	; 0x5b
    bff8:	ebfff617 	bl	985c <strchr@plt>
    bffc:	e50b0008 	str	r0, [fp, #-8]
    c000:	e51b3008 	ldr	r3, [fp, #-8]
    c004:	e3530000 	cmp	r3, #0	; 0x0
    c008:	03a03000 	moveq	r3, #0	; 0x0
    c00c:	13a03001 	movne	r3, #1	; 0x1
    c010:	e20330ff 	and	r3, r3, #255	; 0xff
    c014:	e3530000 	cmp	r3, #0	; 0x0
    c018:	1affffbb 	bne	bf0c <_ZN7secheck6doworkEPv+0xb8>
    c01c:	e59f3170 	ldr	r3, [pc, #368]	; c194 <_ZN7secheck6doworkEPv+0x340>
    c020:	e51b2020 	ldr	r2, [fp, #-32]
    c024:	e7923003 	ldr	r3, [r2, r3]
    c028:	e5933000 	ldr	r3, [r3]
    c02c:	e3530000 	cmp	r3, #0	; 0x0
    c030:	0a00001f 	beq	c0b4 <_ZN7secheck6doworkEPv+0x260>
    c034:	e3a0300c 	mov	r3, #12	; 0xc
    c038:	e50b300c 	str	r3, [fp, #-12]
    c03c:	e51b300c 	ldr	r3, [fp, #-12]
    c040:	e1a00003 	mov	r0, r3
    c044:	ebfff5bf 	bl	9748 <malloc@plt>
    c048:	e1a03000 	mov	r3, r0
    c04c:	e50b3010 	str	r3, [fp, #-16]
    c050:	e51b300c 	ldr	r3, [fp, #-12]
    c054:	e51b0010 	ldr	r0, [fp, #-16]
    c058:	e3a01000 	mov	r1, #0	; 0x0
    c05c:	e1a02003 	mov	r2, r3
    c060:	ebfff5bb 	bl	9754 <memset@plt>
    c064:	e51b3010 	ldr	r3, [fp, #-16]
    c068:	e3a02002 	mov	r2, #2	; 0x2
    c06c:	e5832000 	str	r2, [r3]
    c070:	e51b3010 	ldr	r3, [fp, #-16]
    c074:	e51b2018 	ldr	r2, [fp, #-24]
    c078:	e5832004 	str	r2, [r3, #4]
    c07c:	e3a00003 	mov	r0, #3	; 0x3
    c080:	e59f3110 	ldr	r3, [pc, #272]	; c198 <_ZN7secheck6doworkEPv+0x344>
    c084:	e08f3003 	add	r3, pc, r3
    c088:	e1a01003 	mov	r1, r3
    c08c:	e59f3108 	ldr	r3, [pc, #264]	; c19c <_ZN7secheck6doworkEPv+0x348>
    c090:	e08f3003 	add	r3, pc, r3
    c094:	e1a02003 	mov	r2, r3
    c098:	ebfff5b9 	bl	9784 <__android_log_print@plt>
    c09c:	e51b3018 	ldr	r3, [fp, #-24]
    c0a0:	e5933000 	ldr	r3, [r3]
    c0a4:	e1a00003 	mov	r0, r3
    c0a8:	e51b1010 	ldr	r1, [fp, #-16]
    c0ac:	e3a02000 	mov	r2, #0	; 0x0
    c0b0:	ebfffbbc 	bl	afa8 <_Z12pool_enqueuePvS_c>
    c0b4:	e59f30e4 	ldr	r3, [pc, #228]	; c1a0 <_ZN7secheck6doworkEPv+0x34c>
    c0b8:	e51b2020 	ldr	r2, [fp, #-32]
    c0bc:	e7923003 	ldr	r3, [r2, r3]
    c0c0:	e5933000 	ldr	r3, [r3]
    c0c4:	e3530000 	cmp	r3, #0	; 0x0
    c0c8:	0a00001f 	beq	c14c <_ZN7secheck6doworkEPv+0x2f8>
    c0cc:	e3a0300c 	mov	r3, #12	; 0xc
    c0d0:	e50b300c 	str	r3, [fp, #-12]
    c0d4:	e51b300c 	ldr	r3, [fp, #-12]
    c0d8:	e1a00003 	mov	r0, r3
    c0dc:	ebfff599 	bl	9748 <malloc@plt>
    c0e0:	e1a03000 	mov	r3, r0
    c0e4:	e50b3010 	str	r3, [fp, #-16]
    c0e8:	e51b300c 	ldr	r3, [fp, #-12]
    c0ec:	e51b0010 	ldr	r0, [fp, #-16]
    c0f0:	e3a01000 	mov	r1, #0	; 0x0
    c0f4:	e1a02003 	mov	r2, r3
    c0f8:	ebfff595 	bl	9754 <memset@plt>
    c0fc:	e51b3010 	ldr	r3, [fp, #-16]
    c100:	e3a02003 	mov	r2, #3	; 0x3
    c104:	e5832000 	str	r2, [r3]
    c108:	e51b3010 	ldr	r3, [fp, #-16]
    c10c:	e51b2018 	ldr	r2, [fp, #-24]
    c110:	e5832004 	str	r2, [r3, #4]
    c114:	e3a00003 	mov	r0, #3	; 0x3
    c118:	e59f3084 	ldr	r3, [pc, #132]	; c1a4 <_ZN7secheck6doworkEPv+0x350>
    c11c:	e08f3003 	add	r3, pc, r3
    c120:	e1a01003 	mov	r1, r3
    c124:	e59f307c 	ldr	r3, [pc, #124]	; c1a8 <_ZN7secheck6doworkEPv+0x354>
    c128:	e08f3003 	add	r3, pc, r3
    c12c:	e1a02003 	mov	r2, r3
    c130:	ebfff593 	bl	9784 <__android_log_print@plt>
    c134:	e51b3018 	ldr	r3, [fp, #-24]
    c138:	e5933000 	ldr	r3, [r3]
    c13c:	e1a00003 	mov	r0, r3
    c140:	e51b1010 	ldr	r1, [fp, #-16]
    c144:	e3a02000 	mov	r2, #0	; 0x0
    c148:	ebfffb96 	bl	afa8 <_Z12pool_enqueuePvS_c>
    c14c:	e3a00003 	mov	r0, #3	; 0x3
    c150:	e59f3054 	ldr	r3, [pc, #84]	; c1ac <_ZN7secheck6doworkEPv+0x358>
    c154:	e08f3003 	add	r3, pc, r3
    c158:	e1a01003 	mov	r1, r3
    c15c:	e59f304c 	ldr	r3, [pc, #76]	; c1b0 <_ZN7secheck6doworkEPv+0x35c>
    c160:	e08f3003 	add	r3, pc, r3
    c164:	e1a02003 	mov	r2, r3
    c168:	ebfff585 	bl	9784 <__android_log_print@plt>
    c16c:	e24bd004 	sub	sp, fp, #4	; 0x4
    c170:	e8bd8800 	pop	{fp, pc}
    c174:	0001f034 	.word	0x0001f034
    c178:	0001abe4 	.word	0x0001abe4
    c17c:	0001ac64 	.word	0x0001ac64
    c180:	0001f674 	.word	0x0001f674
    c184:	fffffe54 	.word	0xfffffe54
    c188:	fffffe58 	.word	0xfffffe58
    c18c:	0001aac8 	.word	0x0001aac8
    c190:	0001ab5c 	.word	0x0001ab5c
    c194:	fffffe5c 	.word	0xfffffe5c
    c198:	0001a9f4 	.word	0x0001a9f4
    c19c:	0001aaa0 	.word	0x0001aaa0
    c1a0:	fffffe60 	.word	0xfffffe60
    c1a4:	0001a95c 	.word	0x0001a95c
    c1a8:	0001aa24 	.word	0x0001aa24
    c1ac:	0001a924 	.word	0x0001a924
    c1b0:	0001aa04 	.word	0x0001aa04

0000c1b4 <_ZN7secheck15get_thread_poolEv>:
    c1b4:	e52db004 	push	{fp}		; (str fp, [sp, #-4]!)
    c1b8:	e28db000 	add	fp, sp, #0	; 0x0
    c1bc:	e24dd00c 	sub	sp, sp, #12	; 0xc
    c1c0:	e50b0008 	str	r0, [fp, #-8]
    c1c4:	e51b3008 	ldr	r3, [fp, #-8]
    c1c8:	e5933000 	ldr	r3, [r3]
    c1cc:	e1a00003 	mov	r0, r3
    c1d0:	e28bd000 	add	sp, fp, #0	; 0x0
    c1d4:	e8bd0800 	pop	{fp}
    c1d8:	e12fff1e 	bx	lr

0000c1dc <_ZN7secheck13check_so_textEPKcj>:
    c1dc:	e92d4810 	push	{r4, fp, lr}
    c1e0:	e28db008 	add	fp, sp, #8	; 0x8
    c1e4:	e24ddf47 	sub	sp, sp, #284	; 0x11c
    c1e8:	e50b0110 	str	r0, [fp, #-272]
    c1ec:	e50b1114 	str	r1, [fp, #-276]
    c1f0:	e50b2118 	str	r2, [fp, #-280]
    c1f4:	e59f484c 	ldr	r4, [pc, #2124]	; ca48 <_ZN7secheck13check_so_textEPKcj+0x86c>
    c1f8:	e08f4004 	add	r4, pc, r4
    c1fc:	e3a03000 	mov	r3, #0	; 0x0
    c200:	e50b3034 	str	r3, [fp, #-52]
    c204:	e3a03000 	mov	r3, #0	; 0x0
    c208:	e50b3010 	str	r3, [fp, #-16]
    c20c:	e3a03000 	mov	r3, #0	; 0x0
    c210:	e50b3028 	str	r3, [fp, #-40]
    c214:	e3a03000 	mov	r3, #0	; 0x0
    c218:	e50b3014 	str	r3, [fp, #-20]
    c21c:	e3a03000 	mov	r3, #0	; 0x0
    c220:	e50b3018 	str	r3, [fp, #-24]
    c224:	e24b303c 	sub	r3, fp, #60	; 0x3c
    c228:	e1a00003 	mov	r0, r3
    c22c:	ebfff90c 	bl	a664 <_ZN5ilistC1Ev>
    c230:	e3a03000 	mov	r3, #0	; 0x0
    c234:	e50b3020 	str	r3, [fp, #-32]
    c238:	e59f380c 	ldr	r3, [pc, #2060]	; ca4c <_ZN7secheck13check_so_textEPKcj+0x870>
    c23c:	e50b302c 	str	r3, [fp, #-44]
    c240:	e51b3114 	ldr	r3, [fp, #-276]
    c244:	e3530000 	cmp	r3, #0	; 0x0
    c248:	1a000001 	bne	c254 <_ZN7secheck13check_so_textEPKcj+0x78>
    c24c:	e3a04000 	mov	r4, #0	; 0x0
    c250:	ea0001e9 	b	c9fc <_ZN7secheck13check_so_textEPKcj+0x820>
    c254:	e51b3114 	ldr	r3, [fp, #-276]
    c258:	e58d3000 	str	r3, [sp]
    c25c:	e3a00003 	mov	r0, #3	; 0x3
    c260:	e59f37e8 	ldr	r3, [pc, #2024]	; ca50 <_ZN7secheck13check_so_textEPKcj+0x874>
    c264:	e08f3003 	add	r3, pc, r3
    c268:	e1a01003 	mov	r1, r3
    c26c:	e59f37e0 	ldr	r3, [pc, #2016]	; ca54 <_ZN7secheck13check_so_textEPKcj+0x878>
    c270:	e08f3003 	add	r3, pc, r3
    c274:	e1a02003 	mov	r2, r3
    c278:	e51b3114 	ldr	r3, [fp, #-276]
    c27c:	ebfff540 	bl	9784 <__android_log_print@plt>
    c280:	e24b30d0 	sub	r3, fp, #208	; 0xd0
    c284:	e1a00003 	mov	r0, r3
    c288:	e51b1114 	ldr	r1, [fp, #-276]
    c28c:	ebfffc8b 	bl	b4c0 <_ZN6secelfC1EPKc>
    c290:	e24b30d0 	sub	r3, fp, #208	; 0xd0
    c294:	e1a00003 	mov	r0, r3
    c298:	ebfffd25 	bl	b734 <_ZN6secelf14readelf_headerEv>
    c29c:	e24b30d0 	sub	r3, fp, #208	; 0xd0
    c2a0:	e1a00003 	mov	r0, r3
    c2a4:	ebfffd53 	bl	b7f8 <_ZN6secelf15readelf_sectionEv>
    c2a8:	e24b30d0 	sub	r3, fp, #208	; 0xd0
    c2ac:	e1a00003 	mov	r0, r3
    c2b0:	ebfffd7b 	bl	b8a4 <_ZN6secelf15readelf_dynamicEv>
    c2b4:	e24b20d0 	sub	r2, fp, #208	; 0xd0
    c2b8:	e24b3048 	sub	r3, fp, #72	; 0x48
    c2bc:	e1a00002 	mov	r0, r2
    c2c0:	e1a01003 	mov	r1, r3
    c2c4:	ebfffdcf 	bl	ba08 <_ZN6secelf12readelf_codeEP8sec_code>
    c2c8:	e24b30d0 	sub	r3, fp, #208	; 0xd0
    c2cc:	e1a00003 	mov	r0, r3
    c2d0:	ebfffca1 	bl	b55c <_ZN6secelf3getEv>
    c2d4:	e1a03000 	mov	r3, r0
    c2d8:	e50b3030 	str	r3, [fp, #-48]
    c2dc:	e51b3030 	ldr	r3, [fp, #-48]
    c2e0:	e5933034 	ldr	r3, [r3, #52]
    c2e4:	e3530000 	cmp	r3, #0	; 0x0
    c2e8:	0a000003 	beq	c2fc <_ZN7secheck13check_so_textEPKcj+0x120>
    c2ec:	e51b3030 	ldr	r3, [fp, #-48]
    c2f0:	e5933038 	ldr	r3, [r3, #56]
    c2f4:	e3530000 	cmp	r3, #0	; 0x0
    c2f8:	1a000001 	bne	c304 <_ZN7secheck13check_so_textEPKcj+0x128>
    c2fc:	e3a04000 	mov	r4, #0	; 0x0
    c300:	ea0001ba 	b	c9f0 <_ZN7secheck13check_so_textEPKcj+0x814>
    c304:	e51b0114 	ldr	r0, [fp, #-276]
    c308:	e3a01000 	mov	r1, #0	; 0x0
    c30c:	ebfff555 	bl	9868 <dlopen@plt>
    c310:	e1a03000 	mov	r3, r0
    c314:	e50b3028 	str	r3, [fp, #-40]
    c318:	e51b3028 	ldr	r3, [fp, #-40]
    c31c:	e3530000 	cmp	r3, #0	; 0x0
    c320:	1a00000a 	bne	c350 <_ZN7secheck13check_so_textEPKcj+0x174>
    c324:	e3a00003 	mov	r0, #3	; 0x3
    c328:	e59f3728 	ldr	r3, [pc, #1832]	; ca58 <_ZN7secheck13check_so_textEPKcj+0x87c>
    c32c:	e08f3003 	add	r3, pc, r3
    c330:	e1a01003 	mov	r1, r3
    c334:	e59f3720 	ldr	r3, [pc, #1824]	; ca5c <_ZN7secheck13check_so_textEPKcj+0x880>
    c338:	e08f3003 	add	r3, pc, r3
    c33c:	e1a02003 	mov	r2, r3
    c340:	e51b3114 	ldr	r3, [fp, #-276]
    c344:	ebfff50e 	bl	9784 <__android_log_print@plt>
    c348:	e3a04000 	mov	r4, #0	; 0x0
    c34c:	ea0001a7 	b	c9f0 <_ZN7secheck13check_so_textEPKcj+0x814>
    c350:	e3a00003 	mov	r0, #3	; 0x3
    c354:	e59f3704 	ldr	r3, [pc, #1796]	; ca60 <_ZN7secheck13check_so_textEPKcj+0x884>
    c358:	e08f3003 	add	r3, pc, r3
    c35c:	e1a01003 	mov	r1, r3
    c360:	e59f36fc 	ldr	r3, [pc, #1788]	; ca64 <_ZN7secheck13check_so_textEPKcj+0x888>
    c364:	e08f3003 	add	r3, pc, r3
    c368:	e1a02003 	mov	r2, r3
    c36c:	e51b3114 	ldr	r3, [fp, #-276]
    c370:	ebfff503 	bl	9784 <__android_log_print@plt>
    c374:	e51b3028 	ldr	r3, [fp, #-40]
    c378:	e593c08c 	ldr	ip, [r3, #140]
    c37c:	e3a00003 	mov	r0, #3	; 0x3
    c380:	e59f36e0 	ldr	r3, [pc, #1760]	; ca68 <_ZN7secheck13check_so_textEPKcj+0x88c>
    c384:	e08f3003 	add	r3, pc, r3
    c388:	e1a01003 	mov	r1, r3
    c38c:	e59f36d8 	ldr	r3, [pc, #1752]	; ca6c <_ZN7secheck13check_so_textEPKcj+0x890>
    c390:	e08f3003 	add	r3, pc, r3
    c394:	e1a02003 	mov	r2, r3
    c398:	e1a0300c 	mov	r3, ip
    c39c:	ebfff4f8 	bl	9784 <__android_log_print@plt>
    c3a0:	e24b308c 	sub	r3, fp, #140	; 0x8c
    c3a4:	e1a00003 	mov	r0, r3
    c3a8:	ebfffc16 	bl	b408 <_ZN6secelfC1Ev>
    c3ac:	e24b2f43 	sub	r2, fp, #268	; 0x10c
    c3b0:	e3a0303c 	mov	r3, #60	; 0x3c
    c3b4:	e1a00002 	mov	r0, r2
    c3b8:	e3a01000 	mov	r1, #0	; 0x0
    c3bc:	e1a02003 	mov	r2, r3
    c3c0:	ebfff4e3 	bl	9754 <memset@plt>
    c3c4:	e51b3028 	ldr	r3, [fp, #-40]
    c3c8:	e593308c 	ldr	r3, [r3, #140]
    c3cc:	e50b30d8 	str	r3, [fp, #-216]
    c3d0:	e3a03001 	mov	r3, #1	; 0x1
    c3d4:	e50b30d4 	str	r3, [fp, #-212]
    c3d8:	e24b208c 	sub	r2, fp, #140	; 0x8c
    c3dc:	e24b3f43 	sub	r3, fp, #268	; 0x10c
    c3e0:	e1a00002 	mov	r0, r2
    c3e4:	e1a01003 	mov	r1, r3
    c3e8:	ebfffc64 	bl	b580 <_ZN6secelf3setEP9_sec_elf_>
    c3ec:	e24b308c 	sub	r3, fp, #140	; 0x8c
    c3f0:	e1a00003 	mov	r0, r3
    c3f4:	ebfffcce 	bl	b734 <_ZN6secelf14readelf_headerEv>
    c3f8:	e24b308c 	sub	r3, fp, #140	; 0x8c
    c3fc:	e1a00003 	mov	r0, r3
    c400:	ebfffc55 	bl	b55c <_ZN6secelf3getEv>
    c404:	e1a03000 	mov	r3, r0
    c408:	e24bcf43 	sub	ip, fp, #268	; 0x10c
    c40c:	e1a0e003 	mov	lr, r3
    c410:	e8be000f 	ldm	lr!, {r0, r1, r2, r3}
    c414:	e8ac000f 	stmia	ip!, {r0, r1, r2, r3}
    c418:	e8be000f 	ldm	lr!, {r0, r1, r2, r3}
    c41c:	e8ac000f 	stmia	ip!, {r0, r1, r2, r3}
    c420:	e8be000f 	ldm	lr!, {r0, r1, r2, r3}
    c424:	e8ac000f 	stmia	ip!, {r0, r1, r2, r3}
    c428:	e89e0007 	ldm	lr, {r0, r1, r2}
    c42c:	e88c0007 	stm	ip, {r0, r1, r2}
    c430:	e51b3030 	ldr	r3, [fp, #-48]
    c434:	e5933000 	ldr	r3, [r3]
    c438:	e1d331b2 	ldrh	r3, [r3, #18]
    c43c:	e1a0c003 	mov	ip, r3
    c440:	e51b310c 	ldr	r3, [fp, #-268]
    c444:	e1d331b2 	ldrh	r3, [r3, #18]
    c448:	e58d3000 	str	r3, [sp]
    c44c:	e3a00003 	mov	r0, #3	; 0x3
    c450:	e59f3618 	ldr	r3, [pc, #1560]	; ca70 <_ZN7secheck13check_so_textEPKcj+0x894>
    c454:	e08f3003 	add	r3, pc, r3
    c458:	e1a01003 	mov	r1, r3
    c45c:	e59f3610 	ldr	r3, [pc, #1552]	; ca74 <_ZN7secheck13check_so_textEPKcj+0x898>
    c460:	e08f3003 	add	r3, pc, r3
    c464:	e1a02003 	mov	r2, r3
    c468:	e1a0300c 	mov	r3, ip
    c46c:	ebfff4c4 	bl	9784 <__android_log_print@plt>
    c470:	e51b3030 	ldr	r3, [fp, #-48]
    c474:	e5933000 	ldr	r3, [r3]
    c478:	e1d321b2 	ldrh	r2, [r3, #18]
    c47c:	e51b310c 	ldr	r3, [fp, #-268]
    c480:	e1d331b2 	ldrh	r3, [r3, #18]
    c484:	e1520003 	cmp	r2, r3
    c488:	0a00000a 	beq	c4b8 <_ZN7secheck13check_so_textEPKcj+0x2dc>
    c48c:	e3a00003 	mov	r0, #3	; 0x3
    c490:	e59f35e0 	ldr	r3, [pc, #1504]	; ca78 <_ZN7secheck13check_so_textEPKcj+0x89c>
    c494:	e08f3003 	add	r3, pc, r3
    c498:	e1a01003 	mov	r1, r3
    c49c:	e59f35d8 	ldr	r3, [pc, #1496]	; ca7c <_ZN7secheck13check_so_textEPKcj+0x8a0>
    c4a0:	e08f3003 	add	r3, pc, r3
    c4a4:	e1a02003 	mov	r2, r3
    c4a8:	ebfff4b5 	bl	9784 <__android_log_print@plt>
    c4ac:	e3a00064 	mov	r0, #100	; 0x64
    c4b0:	ebfff4ef 	bl	9874 <sleep@plt>
    c4b4:	eafffff4 	b	c48c <_ZN7secheck13check_so_textEPKcj+0x2b0>
    c4b8:	e51b3030 	ldr	r3, [fp, #-48]
    c4bc:	e5932034 	ldr	r2, [r3, #52]
    c4c0:	e51b3044 	ldr	r3, [fp, #-68]
    c4c4:	e0822003 	add	r2, r2, r3
    c4c8:	e51b1040 	ldr	r1, [fp, #-64]
    c4cc:	e51b3028 	ldr	r3, [fp, #-40]
    c4d0:	e593308c 	ldr	r3, [r3, #140]
    c4d4:	e0813003 	add	r3, r1, r3
    c4d8:	e1a00002 	mov	r0, r2
    c4dc:	e1a01003 	mov	r1, r3
    c4e0:	e3a0200a 	mov	r2, #10	; 0xa
    c4e4:	ebfff4e5 	bl	9880 <memcmp@plt>
    c4e8:	e1a03000 	mov	r3, r0
    c4ec:	e3530000 	cmp	r3, #0	; 0x0
    c4f0:	0a000008 	beq	c518 <_ZN7secheck13check_so_textEPKcj+0x33c>
    c4f4:	e3a00003 	mov	r0, #3	; 0x3
    c4f8:	e59f3580 	ldr	r3, [pc, #1408]	; ca80 <_ZN7secheck13check_so_textEPKcj+0x8a4>
    c4fc:	e08f3003 	add	r3, pc, r3
    c500:	e1a01003 	mov	r1, r3
    c504:	e59f3578 	ldr	r3, [pc, #1400]	; ca84 <_ZN7secheck13check_so_textEPKcj+0x8a8>
    c508:	e08f3003 	add	r3, pc, r3
    c50c:	e1a02003 	mov	r2, r3
    c510:	ebfff49b 	bl	9784 <__android_log_print@plt>
    c514:	ea0000ed 	b	c8d0 <_ZN7secheck13check_so_textEPKcj+0x6f4>
    c518:	e51b3030 	ldr	r3, [fp, #-48]
    c51c:	e5d33030 	ldrb	r3, [r3, #48]
    c520:	e3530000 	cmp	r3, #0	; 0x0
    c524:	0a000008 	beq	c54c <_ZN7secheck13check_so_textEPKcj+0x370>
    c528:	e3a00003 	mov	r0, #3	; 0x3
    c52c:	e59f3554 	ldr	r3, [pc, #1364]	; ca88 <_ZN7secheck13check_so_textEPKcj+0x8ac>
    c530:	e08f3003 	add	r3, pc, r3
    c534:	e1a01003 	mov	r1, r3
    c538:	e59f354c 	ldr	r3, [pc, #1356]	; ca8c <_ZN7secheck13check_so_textEPKcj+0x8b0>
    c53c:	e08f3003 	add	r3, pc, r3
    c540:	e1a02003 	mov	r2, r3
    c544:	ebfff48e 	bl	9784 <__android_log_print@plt>
    c548:	ea000008 	b	c570 <_ZN7secheck13check_so_textEPKcj+0x394>
    c54c:	e3a00003 	mov	r0, #3	; 0x3
    c550:	e59f3538 	ldr	r3, [pc, #1336]	; ca90 <_ZN7secheck13check_so_textEPKcj+0x8b4>
    c554:	e08f3003 	add	r3, pc, r3
    c558:	e1a01003 	mov	r1, r3
    c55c:	e59f3530 	ldr	r3, [pc, #1328]	; ca94 <_ZN7secheck13check_so_textEPKcj+0x8b8>
    c560:	e08f3003 	add	r3, pc, r3
    c564:	e1a02003 	mov	r2, r3
    c568:	ebfff485 	bl	9784 <__android_log_print@plt>
    c56c:	ea000036 	b	c64c <_ZN7secheck13check_so_textEPKcj+0x470>
    c570:	e59f3520 	ldr	r3, [pc, #1312]	; ca98 <_ZN7secheck13check_so_textEPKcj+0x8bc>
    c574:	e7943003 	ldr	r3, [r4, r3]
    c578:	e5933000 	ldr	r3, [r3]
    c57c:	e51b2030 	ldr	r2, [fp, #-48]
    c580:	e5921034 	ldr	r1, [r2, #52]
    c584:	e51b2044 	ldr	r2, [fp, #-68]
    c588:	e0811002 	add	r1, r1, r2
    c58c:	e51b2048 	ldr	r2, [fp, #-72]
    c590:	e1a00001 	mov	r0, r1
    c594:	e1a01002 	mov	r1, r2
    c598:	e12fff33 	blx	r3
    c59c:	e1a03000 	mov	r3, r0
    c5a0:	e50b3034 	str	r3, [fp, #-52]
    c5a4:	e3a00003 	mov	r0, #3	; 0x3
    c5a8:	e59f34ec 	ldr	r3, [pc, #1260]	; ca9c <_ZN7secheck13check_so_textEPKcj+0x8c0>
    c5ac:	e08f3003 	add	r3, pc, r3
    c5b0:	e1a01003 	mov	r1, r3
    c5b4:	e59f34e4 	ldr	r3, [pc, #1252]	; caa0 <_ZN7secheck13check_so_textEPKcj+0x8c4>
    c5b8:	e08f3003 	add	r3, pc, r3
    c5bc:	e1a02003 	mov	r2, r3
    c5c0:	ebfff46f 	bl	9784 <__android_log_print@plt>
    c5c4:	e59f34cc 	ldr	r3, [pc, #1228]	; ca98 <_ZN7secheck13check_so_textEPKcj+0x8bc>
    c5c8:	e7943003 	ldr	r3, [r4, r3]
    c5cc:	e5933000 	ldr	r3, [r3]
    c5d0:	e51b2028 	ldr	r2, [fp, #-40]
    c5d4:	e592108c 	ldr	r1, [r2, #140]
    c5d8:	e51b2040 	ldr	r2, [fp, #-64]
    c5dc:	e0812002 	add	r2, r1, r2
    c5e0:	e1a01002 	mov	r1, r2
    c5e4:	e51b2048 	ldr	r2, [fp, #-72]
    c5e8:	e1a00001 	mov	r0, r1
    c5ec:	e1a01002 	mov	r1, r2
    c5f0:	e12fff33 	blx	r3
    c5f4:	e1a03000 	mov	r3, r0
    c5f8:	e50b3010 	str	r3, [fp, #-16]
    c5fc:	e51b3034 	ldr	r3, [fp, #-52]
    c600:	e58d3000 	str	r3, [sp]
    c604:	e51b3010 	ldr	r3, [fp, #-16]
    c608:	e58d3004 	str	r3, [sp, #4]
    c60c:	e3a00003 	mov	r0, #3	; 0x3
    c610:	e59f348c 	ldr	r3, [pc, #1164]	; caa4 <_ZN7secheck13check_so_textEPKcj+0x8c8>
    c614:	e08f3003 	add	r3, pc, r3
    c618:	e1a01003 	mov	r1, r3
    c61c:	e59f3484 	ldr	r3, [pc, #1156]	; caa8 <_ZN7secheck13check_so_textEPKcj+0x8cc>
    c620:	e08f3003 	add	r3, pc, r3
    c624:	e1a02003 	mov	r2, r3
    c628:	e51b3114 	ldr	r3, [fp, #-276]
    c62c:	ebfff454 	bl	9784 <__android_log_print@plt>
    c630:	e51b2034 	ldr	r2, [fp, #-52]
    c634:	e51b3010 	ldr	r3, [fp, #-16]
    c638:	e1520003 	cmp	r2, r3
    c63c:	1a0000c6 	bne	c95c <_ZN7secheck13check_so_textEPKcj+0x780>
    c640:	e3a00001 	mov	r0, #1	; 0x1
    c644:	ebfff48a 	bl	9874 <sleep@plt>
    c648:	eaffffdd 	b	c5c4 <_ZN7secheck13check_so_textEPKcj+0x3e8>
    c64c:	e3a03000 	mov	r3, #0	; 0x0
    c650:	e50b3010 	str	r3, [fp, #-16]
    c654:	e51b3010 	ldr	r3, [fp, #-16]
    c658:	e50b3034 	str	r3, [fp, #-52]
    c65c:	e51b3048 	ldr	r3, [fp, #-72]
    c660:	e1a00003 	mov	r0, r3
    c664:	ebfff437 	bl	9748 <malloc@plt>
    c668:	e1a03000 	mov	r3, r0
    c66c:	e50b3014 	str	r3, [fp, #-20]
    c670:	e51b3014 	ldr	r3, [fp, #-20]
    c674:	e3530000 	cmp	r3, #0	; 0x0
    c678:	1a000001 	bne	c684 <_ZN7secheck13check_so_textEPKcj+0x4a8>
    c67c:	e3a04001 	mov	r4, #1	; 0x1
    c680:	ea0000d7 	b	c9e4 <_ZN7secheck13check_so_textEPKcj+0x808>
    c684:	e51b3048 	ldr	r3, [fp, #-72]
    c688:	e1a00003 	mov	r0, r3
    c68c:	ebfff42d 	bl	9748 <malloc@plt>
    c690:	e1a03000 	mov	r3, r0
    c694:	e50b3018 	str	r3, [fp, #-24]
    c698:	e51b3018 	ldr	r3, [fp, #-24]
    c69c:	e3530000 	cmp	r3, #0	; 0x0
    c6a0:	1a000001 	bne	c6ac <_ZN7secheck13check_so_textEPKcj+0x4d0>
    c6a4:	e3a04001 	mov	r4, #1	; 0x1
    c6a8:	ea0000cd 	b	c9e4 <_ZN7secheck13check_so_textEPKcj+0x808>
    c6ac:	e51b3028 	ldr	r3, [fp, #-40]
    c6b0:	e593208c 	ldr	r2, [r3, #140]
    c6b4:	e51b3040 	ldr	r3, [fp, #-64]
    c6b8:	e0823003 	add	r3, r2, r3
    c6bc:	e1a02003 	mov	r2, r3
    c6c0:	e51b3048 	ldr	r3, [fp, #-72]
    c6c4:	e51b0014 	ldr	r0, [fp, #-20]
    c6c8:	e1a01002 	mov	r1, r2
    c6cc:	e1a02003 	mov	r2, r3
    c6d0:	ebfff422 	bl	9760 <memcpy@plt>
    c6d4:	e51b3030 	ldr	r3, [fp, #-48]
    c6d8:	e5932034 	ldr	r2, [r3, #52]
    c6dc:	e51b3044 	ldr	r3, [fp, #-68]
    c6e0:	e0822003 	add	r2, r2, r3
    c6e4:	e51b3048 	ldr	r3, [fp, #-72]
    c6e8:	e51b0018 	ldr	r0, [fp, #-24]
    c6ec:	e1a01002 	mov	r1, r2
    c6f0:	e1a02003 	mov	r2, r3
    c6f4:	ebfff419 	bl	9760 <memcpy@plt>
    c6f8:	e3a03000 	mov	r3, #0	; 0x0
    c6fc:	e50b3024 	str	r3, [fp, #-36]
    c700:	ea000024 	b	c798 <_ZN7secheck13check_so_textEPKcj+0x5bc>
    c704:	e51b3024 	ldr	r3, [fp, #-36]
    c708:	e51b2014 	ldr	r2, [fp, #-20]
    c70c:	e0823003 	add	r3, r2, r3
    c710:	e5d32000 	ldrb	r2, [r3]
    c714:	e51b3024 	ldr	r3, [fp, #-36]
    c718:	e51b1018 	ldr	r1, [fp, #-24]
    c71c:	e0813003 	add	r3, r1, r3
    c720:	e5d33000 	ldrb	r3, [r3]
    c724:	e1520003 	cmp	r2, r3
    c728:	0a000017 	beq	c78c <_ZN7secheck13check_so_textEPKcj+0x5b0>
    c72c:	e51b3024 	ldr	r3, [fp, #-36]
    c730:	e24b203c 	sub	r2, fp, #60	; 0x3c
    c734:	e1a00002 	mov	r0, r2
    c738:	e1a01003 	mov	r1, r3
    c73c:	ebfff7ea 	bl	a6ec <_ZN5ilist9push_backEj>
    c740:	e51b3024 	ldr	r3, [fp, #-36]
    c744:	e51b2018 	ldr	r2, [fp, #-24]
    c748:	e0823003 	add	r3, r2, r3
    c74c:	e3a02000 	mov	r2, #0	; 0x0
    c750:	e5c32000 	strb	r2, [r3]
    c754:	e51b3024 	ldr	r3, [fp, #-36]
    c758:	e58d3000 	str	r3, [sp]
    c75c:	e3a00003 	mov	r0, #3	; 0x3
    c760:	e59f3344 	ldr	r3, [pc, #836]	; caac <_ZN7secheck13check_so_textEPKcj+0x8d0>
    c764:	e08f3003 	add	r3, pc, r3
    c768:	e1a01003 	mov	r1, r3
    c76c:	e59f333c 	ldr	r3, [pc, #828]	; cab0 <_ZN7secheck13check_so_textEPKcj+0x8d4>
    c770:	e08f3003 	add	r3, pc, r3
    c774:	e1a02003 	mov	r2, r3
    c778:	e51b3114 	ldr	r3, [fp, #-276]
    c77c:	ebfff400 	bl	9784 <__android_log_print@plt>
    c780:	e51b301c 	ldr	r3, [fp, #-28]
    c784:	e2833001 	add	r3, r3, #1	; 0x1
    c788:	e50b301c 	str	r3, [fp, #-28]
    c78c:	e51b3024 	ldr	r3, [fp, #-36]
    c790:	e2833001 	add	r3, r3, #1	; 0x1
    c794:	e50b3024 	str	r3, [fp, #-36]
    c798:	e51b2024 	ldr	r2, [fp, #-36]
    c79c:	e51b3048 	ldr	r3, [fp, #-72]
    c7a0:	e1520003 	cmp	r2, r3
    c7a4:	23a03000 	movcs	r3, #0	; 0x0
    c7a8:	33a03001 	movcc	r3, #1	; 0x1
    c7ac:	e20330ff 	and	r3, r3, #255	; 0xff
    c7b0:	e3530000 	cmp	r3, #0	; 0x0
    c7b4:	1affffd2 	bne	c704 <_ZN7secheck13check_so_textEPKcj+0x528>
    c7b8:	e59f32d8 	ldr	r3, [pc, #728]	; ca98 <_ZN7secheck13check_so_textEPKcj+0x8bc>
    c7bc:	e7943003 	ldr	r3, [r4, r3]
    c7c0:	e5933000 	ldr	r3, [r3]
    c7c4:	e51b2048 	ldr	r2, [fp, #-72]
    c7c8:	e51b0018 	ldr	r0, [fp, #-24]
    c7cc:	e1a01002 	mov	r1, r2
    c7d0:	e12fff33 	blx	r3
    c7d4:	e1a03000 	mov	r3, r0
    c7d8:	e50b3034 	str	r3, [fp, #-52]
    c7dc:	e51b3028 	ldr	r3, [fp, #-40]
    c7e0:	e593208c 	ldr	r2, [r3, #140]
    c7e4:	e51b3040 	ldr	r3, [fp, #-64]
    c7e8:	e0823003 	add	r3, r2, r3
    c7ec:	e1a02003 	mov	r2, r3
    c7f0:	e51b3048 	ldr	r3, [fp, #-72]
    c7f4:	e51b0014 	ldr	r0, [fp, #-20]
    c7f8:	e1a01002 	mov	r1, r2
    c7fc:	e1a02003 	mov	r2, r3
    c800:	ebfff3d6 	bl	9760 <memcpy@plt>
    c804:	e24b303c 	sub	r3, fp, #60	; 0x3c
    c808:	e1a00003 	mov	r0, r3
    c80c:	ebfff7ac 	bl	a6c4 <_ZN5ilist3getEv>
    c810:	e1a03000 	mov	r3, r0
    c814:	e50b3020 	str	r3, [fp, #-32]
    c818:	ea000008 	b	c840 <_ZN7secheck13check_so_textEPKcj+0x664>
    c81c:	e51b3020 	ldr	r3, [fp, #-32]
    c820:	e5933004 	ldr	r3, [r3, #4]
    c824:	e51b2014 	ldr	r2, [fp, #-20]
    c828:	e0823003 	add	r3, r2, r3
    c82c:	e3a02000 	mov	r2, #0	; 0x0
    c830:	e5c32000 	strb	r2, [r3]
    c834:	e51b3020 	ldr	r3, [fp, #-32]
    c838:	e5933000 	ldr	r3, [r3]
    c83c:	e50b3020 	str	r3, [fp, #-32]
    c840:	e51b3020 	ldr	r3, [fp, #-32]
    c844:	e3530000 	cmp	r3, #0	; 0x0
    c848:	03a03000 	moveq	r3, #0	; 0x0
    c84c:	13a03001 	movne	r3, #1	; 0x1
    c850:	e20330ff 	and	r3, r3, #255	; 0xff
    c854:	e3530000 	cmp	r3, #0	; 0x0
    c858:	1affffef 	bne	c81c <_ZN7secheck13check_so_textEPKcj+0x640>
    c85c:	e59f3234 	ldr	r3, [pc, #564]	; ca98 <_ZN7secheck13check_so_textEPKcj+0x8bc>
    c860:	e7943003 	ldr	r3, [r4, r3]
    c864:	e5933000 	ldr	r3, [r3]
    c868:	e51b2048 	ldr	r2, [fp, #-72]
    c86c:	e51b0014 	ldr	r0, [fp, #-20]
    c870:	e1a01002 	mov	r1, r2
    c874:	e12fff33 	blx	r3
    c878:	e1a03000 	mov	r3, r0
    c87c:	e50b3010 	str	r3, [fp, #-16]
    c880:	e51b3034 	ldr	r3, [fp, #-52]
    c884:	e58d3000 	str	r3, [sp]
    c888:	e51b3010 	ldr	r3, [fp, #-16]
    c88c:	e58d3004 	str	r3, [sp, #4]
    c890:	e3a00003 	mov	r0, #3	; 0x3
    c894:	e59f3218 	ldr	r3, [pc, #536]	; cab4 <_ZN7secheck13check_so_textEPKcj+0x8d8>
    c898:	e08f3003 	add	r3, pc, r3
    c89c:	e1a01003 	mov	r1, r3
    c8a0:	e59f3210 	ldr	r3, [pc, #528]	; cab8 <_ZN7secheck13check_so_textEPKcj+0x8dc>
    c8a4:	e08f3003 	add	r3, pc, r3
    c8a8:	e1a02003 	mov	r2, r3
    c8ac:	e51b3114 	ldr	r3, [fp, #-276]
    c8b0:	ebfff3b3 	bl	9784 <__android_log_print@plt>
    c8b4:	e51b2034 	ldr	r2, [fp, #-52]
    c8b8:	e51b3010 	ldr	r3, [fp, #-16]
    c8bc:	e1520003 	cmp	r2, r3
    c8c0:	1a000027 	bne	c964 <_ZN7secheck13check_so_textEPKcj+0x788>
    c8c4:	e3a00001 	mov	r0, #1	; 0x1
    c8c8:	ebfff3e9 	bl	9874 <sleep@plt>
    c8cc:	eaffffc2 	b	c7dc <_ZN7secheck13check_so_textEPKcj+0x600>
    c8d0:	e59f31c0 	ldr	r3, [pc, #448]	; ca98 <_ZN7secheck13check_so_textEPKcj+0x8bc>
    c8d4:	e7943003 	ldr	r3, [r4, r3]
    c8d8:	e5933000 	ldr	r3, [r3]
    c8dc:	e51b2028 	ldr	r2, [fp, #-40]
    c8e0:	e592108c 	ldr	r1, [r2, #140]
    c8e4:	e51b2040 	ldr	r2, [fp, #-64]
    c8e8:	e0812002 	add	r2, r1, r2
    c8ec:	e1a01002 	mov	r1, r2
    c8f0:	e51b2048 	ldr	r2, [fp, #-72]
    c8f4:	e1a00001 	mov	r0, r1
    c8f8:	e1a01002 	mov	r1, r2
    c8fc:	e12fff33 	blx	r3
    c900:	e1a03000 	mov	r3, r0
    c904:	e50b3034 	str	r3, [fp, #-52]
    c908:	e59f3188 	ldr	r3, [pc, #392]	; ca98 <_ZN7secheck13check_so_textEPKcj+0x8bc>
    c90c:	e7943003 	ldr	r3, [r4, r3]
    c910:	e5933000 	ldr	r3, [r3]
    c914:	e51b2028 	ldr	r2, [fp, #-40]
    c918:	e592108c 	ldr	r1, [r2, #140]
    c91c:	e51b2040 	ldr	r2, [fp, #-64]
    c920:	e0812002 	add	r2, r1, r2
    c924:	e1a01002 	mov	r1, r2
    c928:	e51b2048 	ldr	r2, [fp, #-72]
    c92c:	e1a00001 	mov	r0, r1
    c930:	e1a01002 	mov	r1, r2
    c934:	e12fff33 	blx	r3
    c938:	e1a03000 	mov	r3, r0
    c93c:	e50b3010 	str	r3, [fp, #-16]
    c940:	e51b2034 	ldr	r2, [fp, #-52]
    c944:	e51b3010 	ldr	r3, [fp, #-16]
    c948:	e1520003 	cmp	r2, r3
    c94c:	1a000006 	bne	c96c <_ZN7secheck13check_so_textEPKcj+0x790>
    c950:	e3a00001 	mov	r0, #1	; 0x1
    c954:	ebfff3c6 	bl	9874 <sleep@plt>
    c958:	eaffffea 	b	c908 <_ZN7secheck13check_so_textEPKcj+0x72c>
    c95c:	e1a00000 	nop			(mov r0,r0)
    c960:	ea000002 	b	c970 <_ZN7secheck13check_so_textEPKcj+0x794>
    c964:	e1a00000 	nop			(mov r0,r0)
    c968:	ea000000 	b	c970 <_ZN7secheck13check_so_textEPKcj+0x794>
    c96c:	e1a00000 	nop			(mov r0,r0)
    c970:	e51b3028 	ldr	r3, [fp, #-40]
    c974:	e3530000 	cmp	r3, #0	; 0x0
    c978:	0a000001 	beq	c984 <_ZN7secheck13check_so_textEPKcj+0x7a8>
    c97c:	e51b0028 	ldr	r0, [fp, #-40]
    c980:	ebfff3c1 	bl	988c <dlclose@plt>
    c984:	e51b3014 	ldr	r3, [fp, #-20]
    c988:	e3530000 	cmp	r3, #0	; 0x0
    c98c:	0a000001 	beq	c998 <_ZN7secheck13check_so_textEPKcj+0x7bc>
    c990:	e51b0014 	ldr	r0, [fp, #-20]
    c994:	ebfff377 	bl	9778 <free@plt>
    c998:	e51b3018 	ldr	r3, [fp, #-24]
    c99c:	e3530000 	cmp	r3, #0	; 0x0
    c9a0:	0a000001 	beq	c9ac <_ZN7secheck13check_so_textEPKcj+0x7d0>
    c9a4:	e51b0018 	ldr	r0, [fp, #-24]
    c9a8:	ebfff372 	bl	9778 <free@plt>
    c9ac:	e24b303c 	sub	r3, fp, #60	; 0x3c
    c9b0:	e1a00003 	mov	r0, r3
    c9b4:	ebfff788 	bl	a7dc <_ZN5ilist5clearEv>
    c9b8:	e24b3034 	sub	r3, fp, #52	; 0x34
    c9bc:	e51b002c 	ldr	r0, [fp, #-44]
    c9c0:	e1a01003 	mov	r1, r3
    c9c4:	e3a02004 	mov	r2, #4	; 0x4
    c9c8:	ebfff364 	bl	9760 <memcpy@plt>
    c9cc:	e51b2034 	ldr	r2, [fp, #-52]
    c9d0:	e51b3010 	ldr	r3, [fp, #-16]
    c9d4:	e1520003 	cmp	r2, r3
    c9d8:	13a03000 	movne	r3, #0	; 0x0
    c9dc:	03a03001 	moveq	r3, #1	; 0x1
    c9e0:	e20340ff 	and	r4, r3, #255	; 0xff
    c9e4:	e24b308c 	sub	r3, fp, #140	; 0x8c
    c9e8:	e1a00003 	mov	r0, r3
    c9ec:	ebfffacc 	bl	b524 <_ZN6secelfD1Ev>
    c9f0:	e24b30d0 	sub	r3, fp, #208	; 0xd0
    c9f4:	e1a00003 	mov	r0, r3
    c9f8:	ebfffac9 	bl	b524 <_ZN6secelfD1Ev>
    c9fc:	e24b303c 	sub	r3, fp, #60	; 0x3c
    ca00:	e1a00003 	mov	r0, r3
    ca04:	ebfff725 	bl	a6a0 <_ZN5ilistD1Ev>
    ca08:	e1a03004 	mov	r3, r4
    ca0c:	e1a00003 	mov	r0, r3
    ca10:	e24bd008 	sub	sp, fp, #8	; 0x8
    ca14:	e8bd8810 	pop	{r4, fp, pc}
    ca18:	e24b308c 	sub	r3, fp, #140	; 0x8c
    ca1c:	e1a00003 	mov	r0, r3
    ca20:	ebfffabf 	bl	b524 <_ZN6secelfD1Ev>
    ca24:	eaffffff 	b	ca28 <_ZN7secheck13check_so_textEPKcj+0x84c>
    ca28:	e24b30d0 	sub	r3, fp, #208	; 0xd0
    ca2c:	e1a00003 	mov	r0, r3
    ca30:	ebfffabb 	bl	b524 <_ZN6secelfD1Ev>
    ca34:	eaffffff 	b	ca38 <_ZN7secheck13check_so_textEPKcj+0x85c>
    ca38:	e24b303c 	sub	r3, fp, #60	; 0x3c
    ca3c:	e1a00003 	mov	r0, r3
    ca40:	ebfff716 	bl	a6a0 <_ZN5ilistD1Ev>
    ca44:	eb000fa9 	bl	108f0 <__cxa_end_cleanup>
    ca48:	0001ecb0 	.word	0x0001ecb0
    ca4c:	fafafafa 	.word	0xfafafafa
    ca50:	0001a814 	.word	0x0001a814
    ca54:	0001a908 	.word	0x0001a908
    ca58:	0001a74c 	.word	0x0001a74c
    ca5c:	0001a854 	.word	0x0001a854
    ca60:	0001a720 	.word	0x0001a720
    ca64:	0001a83c 	.word	0x0001a83c
    ca68:	0001a6f4 	.word	0x0001a6f4
    ca6c:	0001a828 	.word	0x0001a828
    ca70:	0001a624 	.word	0x0001a624
    ca74:	0001a770 	.word	0x0001a770
    ca78:	0001a5e4 	.word	0x0001a5e4
    ca7c:	0001a754 	.word	0x0001a754
    ca80:	0001a57c 	.word	0x0001a57c
    ca84:	0001a714 	.word	0x0001a714
    ca88:	0001a548 	.word	0x0001a548
    ca8c:	0001a6f0 	.word	0x0001a6f0
    ca90:	0001a524 	.word	0x0001a524
    ca94:	0001a6dc 	.word	0x0001a6dc
    ca98:	fffffe08 	.word	0xfffffe08
    ca9c:	0001a4cc 	.word	0x0001a4cc
    caa0:	0001a694 	.word	0x0001a694
    caa4:	0001a464 	.word	0x0001a464
    caa8:	0001a65c 	.word	0x0001a65c
    caac:	0001a314 	.word	0x0001a314
    cab0:	0001a550 	.word	0x0001a550
    cab4:	0001a1e0 	.word	0x0001a1e0
    cab8:	0001a450 	.word	0x0001a450

0000cabc <_ZN7secheck16check_anti_debugEv>:
    cabc:	e92d4800 	push	{fp, lr}
    cac0:	e28db004 	add	fp, sp, #4	; 0x4
    cac4:	e24dd010 	sub	sp, sp, #16	; 0x10
    cac8:	e50b0010 	str	r0, [fp, #-16]
    cacc:	e3a03000 	mov	r3, #0	; 0x0
    cad0:	e54b3005 	strb	r3, [fp, #-5]
    cad4:	eb002f51 	bl	18820 <_Z9fdog_initv>
    cad8:	e1a03000 	mov	r3, r0
    cadc:	e3730001 	cmn	r3, #1	; 0x1
    cae0:	13a03000 	movne	r3, #0	; 0x0
    cae4:	03a03001 	moveq	r3, #1	; 0x1
    cae8:	e20330ff 	and	r3, r3, #255	; 0xff
    caec:	e3530000 	cmp	r3, #0	; 0x0
    caf0:	1a000002 	bne	cb00 <_ZN7secheck16check_anti_debugEv+0x44>
    caf4:	e3a0000a 	mov	r0, #10	; 0xa
    caf8:	ebfff35d 	bl	9874 <sleep@plt>
    cafc:	eafffff4 	b	cad4 <_ZN7secheck16check_anti_debugEv+0x18>
    cb00:	e1a00000 	nop			(mov r0,r0)
    cb04:	e55b3005 	ldrb	r3, [fp, #-5]
    cb08:	e1a00003 	mov	r0, r3
    cb0c:	e24bd004 	sub	sp, fp, #4	; 0x4
    cb10:	e8bd8800 	pop	{fp, pc}

0000cb14 <_ZN7secheck11check_ilsecEv>:
    cb14:	e92d4830 	push	{r4, r5, fp, lr}
    cb18:	e28db00c 	add	fp, sp, #12	; 0xc
    cb1c:	e24ddd05 	sub	sp, sp, #320	; 0x140
    cb20:	e50b0138 	str	r0, [fp, #-312]
    cb24:	e59f4578 	ldr	r4, [pc, #1400]	; d0a4 <_ZN7secheck11check_ilsecEv+0x590>
    cb28:	e08f4004 	add	r4, pc, r4
    cb2c:	e3a03000 	mov	r3, #0	; 0x0
    cb30:	e54b301d 	strb	r3, [fp, #-29]
    cb34:	e59f356c 	ldr	r3, [pc, #1388]	; d0a8 <_ZN7secheck11check_ilsecEv+0x594>
    cb38:	e7943003 	ldr	r3, [r4, r3]
    cb3c:	e50b3010 	str	r3, [fp, #-16]
    cb40:	e24b2e13 	sub	r2, fp, #304	; 0x130
    cb44:	e3a03080 	mov	r3, #128	; 0x80
    cb48:	e1a00002 	mov	r0, r2
    cb4c:	e3a01000 	mov	r1, #0	; 0x0
    cb50:	e1a02003 	mov	r2, r3
    cb54:	ebfff2fe 	bl	9754 <memset@plt>
    cb58:	e24b20b0 	sub	r2, fp, #176	; 0xb0
    cb5c:	e3a03080 	mov	r3, #128	; 0x80
    cb60:	e1a00002 	mov	r0, r2
    cb64:	e3a01000 	mov	r1, #0	; 0x0
    cb68:	e1a02003 	mov	r2, r3
    cb6c:	ebfff2f8 	bl	9754 <memset@plt>
    cb70:	e3a03000 	mov	r3, #0	; 0x0
    cb74:	e50b3014 	str	r3, [fp, #-20]
    cb78:	e3a03000 	mov	r3, #0	; 0x0
    cb7c:	e50b3018 	str	r3, [fp, #-24]
    cb80:	e3a03000 	mov	r3, #0	; 0x0
    cb84:	e50b3024 	str	r3, [fp, #-36]
    cb88:	e3a03000 	mov	r3, #0	; 0x0
    cb8c:	e50b301c 	str	r3, [fp, #-28]
    cb90:	ea000005 	b	cbac <_ZN7secheck11check_ilsecEv+0x98>
    cb94:	e51b3018 	ldr	r3, [fp, #-24]
    cb98:	e2833001 	add	r3, r3, #1	; 0x1
    cb9c:	e50b3018 	str	r3, [fp, #-24]
    cba0:	e51b3010 	ldr	r3, [fp, #-16]
    cba4:	e2833001 	add	r3, r3, #1	; 0x1
    cba8:	e50b3010 	str	r3, [fp, #-16]
    cbac:	e51b0010 	ldr	r0, [fp, #-16]
    cbb0:	e3a0105b 	mov	r1, #91	; 0x5b
    cbb4:	ebfff328 	bl	985c <strchr@plt>
    cbb8:	e50b0010 	str	r0, [fp, #-16]
    cbbc:	e51b3010 	ldr	r3, [fp, #-16]
    cbc0:	e3530000 	cmp	r3, #0	; 0x0
    cbc4:	03a03000 	moveq	r3, #0	; 0x0
    cbc8:	13a03001 	movne	r3, #1	; 0x1
    cbcc:	e20330ff 	and	r3, r3, #255	; 0xff
    cbd0:	e3530000 	cmp	r3, #0	; 0x0
    cbd4:	1affffee 	bne	cb94 <_ZN7secheck11check_ilsecEv+0x80>
    cbd8:	e59f34c8 	ldr	r3, [pc, #1224]	; d0a8 <_ZN7secheck11check_ilsecEv+0x594>
    cbdc:	e7943003 	ldr	r3, [r4, r3]
    cbe0:	e50b3010 	str	r3, [fp, #-16]
    cbe4:	e3a00003 	mov	r0, #3	; 0x3
    cbe8:	e59f34bc 	ldr	r3, [pc, #1212]	; d0ac <_ZN7secheck11check_ilsecEv+0x598>
    cbec:	e08f3003 	add	r3, pc, r3
    cbf0:	e1a01003 	mov	r1, r3
    cbf4:	e59f34b4 	ldr	r3, [pc, #1204]	; d0b0 <_ZN7secheck11check_ilsecEv+0x59c>
    cbf8:	e08f3003 	add	r3, pc, r3
    cbfc:	e1a02003 	mov	r2, r3
    cc00:	e51b3018 	ldr	r3, [fp, #-24]
    cc04:	ebfff2de 	bl	9784 <__android_log_print@plt>
    cc08:	e51b3018 	ldr	r3, [fp, #-24]
    cc0c:	e1a03203 	lsl	r3, r3, #4
    cc10:	e1a00003 	mov	r0, r3
    cc14:	ebfff2cb 	bl	9748 <malloc@plt>
    cc18:	e1a03000 	mov	r3, r0
    cc1c:	e50b3024 	str	r3, [fp, #-36]
    cc20:	e51b3024 	ldr	r3, [fp, #-36]
    cc24:	e3530000 	cmp	r3, #0	; 0x0
    cc28:	1a000003 	bne	cc3c <_ZN7secheck11check_ilsecEv+0x128>
    cc2c:	e3a03000 	mov	r3, #0	; 0x0
    cc30:	e1a00003 	mov	r0, r3
    cc34:	e24bd00c 	sub	sp, fp, #12	; 0xc
    cc38:	e8bd8830 	pop	{r4, r5, fp, pc}
    cc3c:	e55b3130 	ldrb	r3, [fp, #-304]
    cc40:	e3530000 	cmp	r3, #0	; 0x0
    cc44:	0a00009c 	beq	cebc <_ZN7secheck11check_ilsecEv+0x3a8>
    cc48:	e24b20b0 	sub	r2, fp, #176	; 0xb0
    cc4c:	e24b3e13 	sub	r3, fp, #304	; 0x130
    cc50:	e1a00002 	mov	r0, r2
    cc54:	e1a01003 	mov	r1, r3
    cc58:	ebfff3e0 	bl	9be0 <Base64decode>
    cc5c:	e24bc0b0 	sub	ip, fp, #176	; 0xb0
    cc60:	e3a00003 	mov	r0, #3	; 0x3
    cc64:	e59f3448 	ldr	r3, [pc, #1096]	; d0b4 <_ZN7secheck11check_ilsecEv+0x5a0>
    cc68:	e08f3003 	add	r3, pc, r3
    cc6c:	e1a01003 	mov	r1, r3
    cc70:	e59f3440 	ldr	r3, [pc, #1088]	; d0b8 <_ZN7secheck11check_ilsecEv+0x5a4>
    cc74:	e08f3003 	add	r3, pc, r3
    cc78:	e1a02003 	mov	r2, r3
    cc7c:	e1a0300c 	mov	r3, ip
    cc80:	ebfff2bf 	bl	9784 <__android_log_print@plt>
    cc84:	e24b30b0 	sub	r3, fp, #176	; 0xb0
    cc88:	e1a00003 	mov	r0, r3
    cc8c:	e3a0102d 	mov	r1, #45	; 0x2d
    cc90:	ebfff2f1 	bl	985c <strchr@plt>
    cc94:	e50b0028 	str	r0, [fp, #-40]
    cc98:	e51b3028 	ldr	r3, [fp, #-40]
    cc9c:	e2833001 	add	r3, r3, #1	; 0x1
    cca0:	e50b302c 	str	r3, [fp, #-44]
    cca4:	e51b3028 	ldr	r3, [fp, #-40]
    cca8:	e3a02000 	mov	r2, #0	; 0x0
    ccac:	e5c32000 	strb	r2, [r3]
    ccb0:	e51b301c 	ldr	r3, [fp, #-28]
    ccb4:	e1a03103 	lsl	r3, r3, #2
    ccb8:	e51b2024 	ldr	r2, [fp, #-36]
    ccbc:	e0825003 	add	r5, r2, r3
    ccc0:	e24b30b0 	sub	r3, fp, #176	; 0xb0
    ccc4:	e1a00003 	mov	r0, r3
    ccc8:	ebfff2f2 	bl	9898 <atoi@plt>
    cccc:	e1a03000 	mov	r3, r0
    ccd0:	e5853000 	str	r3, [r5]
    ccd4:	e51b301c 	ldr	r3, [fp, #-28]
    ccd8:	e2833001 	add	r3, r3, #1	; 0x1
    ccdc:	e1a03103 	lsl	r3, r3, #2
    cce0:	e51b2024 	ldr	r2, [fp, #-36]
    cce4:	e0825003 	add	r5, r2, r3
    cce8:	e51b002c 	ldr	r0, [fp, #-44]
    ccec:	ebfff2e9 	bl	9898 <atoi@plt>
    ccf0:	e1a03000 	mov	r3, r0
    ccf4:	e5853000 	str	r3, [r5]
    ccf8:	e51b301c 	ldr	r3, [fp, #-28]
    ccfc:	e2833002 	add	r3, r3, #2	; 0x2
    cd00:	e1a03103 	lsl	r3, r3, #2
    cd04:	e51b2024 	ldr	r2, [fp, #-36]
    cd08:	e0825003 	add	r5, r2, r3
    cd0c:	e59f33a8 	ldr	r3, [pc, #936]	; d0bc <_ZN7secheck11check_ilsecEv+0x5a8>
    cd10:	e7943003 	ldr	r3, [r4, r3]
    cd14:	e5933000 	ldr	r3, [r3]
    cd18:	e59f23a0 	ldr	r2, [pc, #928]	; d0c0 <_ZN7secheck11check_ilsecEv+0x5ac>
    cd1c:	e7942002 	ldr	r2, [r4, r2]
    cd20:	e5921000 	ldr	r1, [r2]
    cd24:	e59f2398 	ldr	r2, [pc, #920]	; d0c4 <_ZN7secheck11check_ilsecEv+0x5b0>
    cd28:	e7942002 	ldr	r2, [r4, r2]
    cd2c:	e5922000 	ldr	r2, [r2]
    cd30:	e0811002 	add	r1, r1, r2
    cd34:	e51b201c 	ldr	r2, [fp, #-28]
    cd38:	e1a02102 	lsl	r2, r2, #2
    cd3c:	e51b0024 	ldr	r0, [fp, #-36]
    cd40:	e0802002 	add	r2, r0, r2
    cd44:	e5922000 	ldr	r2, [r2]
    cd48:	e0812002 	add	r2, r1, r2
    cd4c:	e1a01002 	mov	r1, r2
    cd50:	e51b201c 	ldr	r2, [fp, #-28]
    cd54:	e2822001 	add	r2, r2, #1	; 0x1
    cd58:	e1a02102 	lsl	r2, r2, #2
    cd5c:	e51b0024 	ldr	r0, [fp, #-36]
    cd60:	e0802002 	add	r2, r0, r2
    cd64:	e5922000 	ldr	r2, [r2]
    cd68:	e1a00001 	mov	r0, r1
    cd6c:	e1a01002 	mov	r1, r2
    cd70:	e12fff33 	blx	r3
    cd74:	e1a03000 	mov	r3, r0
    cd78:	e5853000 	str	r3, [r5]
    cd7c:	e51b301c 	ldr	r3, [fp, #-28]
    cd80:	e2833003 	add	r3, r3, #3	; 0x3
    cd84:	e1a03103 	lsl	r3, r3, #2
    cd88:	e51b2024 	ldr	r2, [fp, #-36]
    cd8c:	e0823003 	add	r3, r2, r3
    cd90:	e3a02000 	mov	r2, #0	; 0x0
    cd94:	e5832000 	str	r2, [r3]
    cd98:	e51b301c 	ldr	r3, [fp, #-28]
    cd9c:	e1a03103 	lsl	r3, r3, #2
    cda0:	e51b2024 	ldr	r2, [fp, #-36]
    cda4:	e0823003 	add	r3, r2, r3
    cda8:	e5932000 	ldr	r2, [r3]
    cdac:	e59f3310 	ldr	r3, [pc, #784]	; d0c4 <_ZN7secheck11check_ilsecEv+0x5b0>
    cdb0:	e7943003 	ldr	r3, [r4, r3]
    cdb4:	e5933000 	ldr	r3, [r3]
    cdb8:	e082c003 	add	ip, r2, r3
    cdbc:	e59f3300 	ldr	r3, [pc, #768]	; d0c4 <_ZN7secheck11check_ilsecEv+0x5b0>
    cdc0:	e7943003 	ldr	r3, [r4, r3]
    cdc4:	e5932000 	ldr	r2, [r3]
    cdc8:	e51b301c 	ldr	r3, [fp, #-28]
    cdcc:	e1a03103 	lsl	r3, r3, #2
    cdd0:	e51b1024 	ldr	r1, [fp, #-36]
    cdd4:	e0813003 	add	r3, r1, r3
    cdd8:	e5933000 	ldr	r3, [r3]
    cddc:	e58d2000 	str	r2, [sp]
    cde0:	e58d3004 	str	r3, [sp, #4]
    cde4:	e3a00003 	mov	r0, #3	; 0x3
    cde8:	e59f32d8 	ldr	r3, [pc, #728]	; d0c8 <_ZN7secheck11check_ilsecEv+0x5b4>
    cdec:	e08f3003 	add	r3, pc, r3
    cdf0:	e1a01003 	mov	r1, r3
    cdf4:	e59f32d0 	ldr	r3, [pc, #720]	; d0cc <_ZN7secheck11check_ilsecEv+0x5b8>
    cdf8:	e08f3003 	add	r3, pc, r3
    cdfc:	e1a02003 	mov	r2, r3
    ce00:	e1a0300c 	mov	r3, ip
    ce04:	ebfff25e 	bl	9784 <__android_log_print@plt>
    ce08:	e59f32b0 	ldr	r3, [pc, #688]	; d0c0 <_ZN7secheck11check_ilsecEv+0x5ac>
    ce0c:	e7943003 	ldr	r3, [r4, r3]
    ce10:	e5932000 	ldr	r2, [r3]
    ce14:	e59f32a8 	ldr	r3, [pc, #680]	; d0c4 <_ZN7secheck11check_ilsecEv+0x5b0>
    ce18:	e7943003 	ldr	r3, [r4, r3]
    ce1c:	e5933000 	ldr	r3, [r3]
    ce20:	e0822003 	add	r2, r2, r3
    ce24:	e51b301c 	ldr	r3, [fp, #-28]
    ce28:	e1a03103 	lsl	r3, r3, #2
    ce2c:	e51b1024 	ldr	r1, [fp, #-36]
    ce30:	e0813003 	add	r3, r1, r3
    ce34:	e5933000 	ldr	r3, [r3]
    ce38:	e082c003 	add	ip, r2, r3
    ce3c:	e51b301c 	ldr	r3, [fp, #-28]
    ce40:	e1a03103 	lsl	r3, r3, #2
    ce44:	e51b2024 	ldr	r2, [fp, #-36]
    ce48:	e0823003 	add	r3, r2, r3
    ce4c:	e5931000 	ldr	r1, [r3]
    ce50:	e51b301c 	ldr	r3, [fp, #-28]
    ce54:	e2833001 	add	r3, r3, #1	; 0x1
    ce58:	e1a03103 	lsl	r3, r3, #2
    ce5c:	e51b2024 	ldr	r2, [fp, #-36]
    ce60:	e0823003 	add	r3, r2, r3
    ce64:	e5932000 	ldr	r2, [r3]
    ce68:	e51b301c 	ldr	r3, [fp, #-28]
    ce6c:	e2833002 	add	r3, r3, #2	; 0x2
    ce70:	e1a03103 	lsl	r3, r3, #2
    ce74:	e51b0024 	ldr	r0, [fp, #-36]
    ce78:	e0803003 	add	r3, r0, r3
    ce7c:	e5933000 	ldr	r3, [r3]
    ce80:	e58d1000 	str	r1, [sp]
    ce84:	e58d2004 	str	r2, [sp, #4]
    ce88:	e58d3008 	str	r3, [sp, #8]
    ce8c:	e3a00003 	mov	r0, #3	; 0x3
    ce90:	e59f3238 	ldr	r3, [pc, #568]	; d0d0 <_ZN7secheck11check_ilsecEv+0x5bc>
    ce94:	e08f3003 	add	r3, pc, r3
    ce98:	e1a01003 	mov	r1, r3
    ce9c:	e59f3230 	ldr	r3, [pc, #560]	; d0d4 <_ZN7secheck11check_ilsecEv+0x5c0>
    cea0:	e08f3003 	add	r3, pc, r3
    cea4:	e1a02003 	mov	r2, r3
    cea8:	e1a0300c 	mov	r3, ip
    ceac:	ebfff234 	bl	9784 <__android_log_print@plt>
    ceb0:	e51b301c 	ldr	r3, [fp, #-28]
    ceb4:	e2833004 	add	r3, r3, #4	; 0x4
    ceb8:	e50b301c 	str	r3, [fp, #-28]
    cebc:	e51b2010 	ldr	r2, [fp, #-16]
    cec0:	e51b3014 	ldr	r3, [fp, #-20]
    cec4:	e0823003 	add	r3, r2, r3
    cec8:	e50b3010 	str	r3, [fp, #-16]
    cecc:	e24b3e13 	sub	r3, fp, #304	; 0x130
    ced0:	e51b0010 	ldr	r0, [fp, #-16]
    ced4:	e3a0105b 	mov	r1, #91	; 0x5b
    ced8:	e3a0205d 	mov	r2, #93	; 0x5d
    cedc:	eb000e49 	bl	10808 <_Z10ilstrtokenPcccS_>
    cee0:	e1a03000 	mov	r3, r0
    cee4:	e50b3014 	str	r3, [fp, #-20]
    cee8:	e51b3014 	ldr	r3, [fp, #-20]
    ceec:	e3530000 	cmp	r3, #0	; 0x0
    cef0:	03a03000 	moveq	r3, #0	; 0x0
    cef4:	13a03001 	movne	r3, #1	; 0x1
    cef8:	e20330ff 	and	r3, r3, #255	; 0xff
    cefc:	e3530000 	cmp	r3, #0	; 0x0
    cf00:	1affff4d 	bne	cc3c <_ZN7secheck11check_ilsecEv+0x128>
    cf04:	e3a03000 	mov	r3, #0	; 0x0
    cf08:	e50b301c 	str	r3, [fp, #-28]
    cf0c:	ea000058 	b	d074 <_ZN7secheck11check_ilsecEv+0x560>
    cf10:	e59f31a4 	ldr	r3, [pc, #420]	; d0bc <_ZN7secheck11check_ilsecEv+0x5a8>
    cf14:	e7943003 	ldr	r3, [r4, r3]
    cf18:	e5933000 	ldr	r3, [r3]
    cf1c:	e59f219c 	ldr	r2, [pc, #412]	; d0c0 <_ZN7secheck11check_ilsecEv+0x5ac>
    cf20:	e7942002 	ldr	r2, [r4, r2]
    cf24:	e5921000 	ldr	r1, [r2]
    cf28:	e59f2194 	ldr	r2, [pc, #404]	; d0c4 <_ZN7secheck11check_ilsecEv+0x5b0>
    cf2c:	e7942002 	ldr	r2, [r4, r2]
    cf30:	e5922000 	ldr	r2, [r2]
    cf34:	e0811002 	add	r1, r1, r2
    cf38:	e51b201c 	ldr	r2, [fp, #-28]
    cf3c:	e1a02102 	lsl	r2, r2, #2
    cf40:	e51b0024 	ldr	r0, [fp, #-36]
    cf44:	e0802002 	add	r2, r0, r2
    cf48:	e5922000 	ldr	r2, [r2]
    cf4c:	e0812002 	add	r2, r1, r2
    cf50:	e1a01002 	mov	r1, r2
    cf54:	e51b201c 	ldr	r2, [fp, #-28]
    cf58:	e2822001 	add	r2, r2, #1	; 0x1
    cf5c:	e1a02102 	lsl	r2, r2, #2
    cf60:	e51b0024 	ldr	r0, [fp, #-36]
    cf64:	e0802002 	add	r2, r0, r2
    cf68:	e5922000 	ldr	r2, [r2]
    cf6c:	e1a00001 	mov	r0, r1
    cf70:	e1a01002 	mov	r1, r2
    cf74:	e12fff33 	blx	r3
    cf78:	e1a03000 	mov	r3, r0
    cf7c:	e50b3030 	str	r3, [fp, #-48]
    cf80:	e51b301c 	ldr	r3, [fp, #-28]
    cf84:	e1a03103 	lsl	r3, r3, #2
    cf88:	e51b2024 	ldr	r2, [fp, #-36]
    cf8c:	e0823003 	add	r3, r2, r3
    cf90:	e5932000 	ldr	r2, [r3]
    cf94:	e59f3128 	ldr	r3, [pc, #296]	; d0c4 <_ZN7secheck11check_ilsecEv+0x5b0>
    cf98:	e7943003 	ldr	r3, [r4, r3]
    cf9c:	e5933000 	ldr	r3, [r3]
    cfa0:	e082c003 	add	ip, r2, r3
    cfa4:	e51b301c 	ldr	r3, [fp, #-28]
    cfa8:	e2833002 	add	r3, r3, #2	; 0x2
    cfac:	e1a03103 	lsl	r3, r3, #2
    cfb0:	e51b2024 	ldr	r2, [fp, #-36]
    cfb4:	e0823003 	add	r3, r2, r3
    cfb8:	e5933000 	ldr	r3, [r3]
    cfbc:	e58d3000 	str	r3, [sp]
    cfc0:	e51b3030 	ldr	r3, [fp, #-48]
    cfc4:	e58d3004 	str	r3, [sp, #4]
    cfc8:	e3a00003 	mov	r0, #3	; 0x3
    cfcc:	e59f3104 	ldr	r3, [pc, #260]	; d0d8 <_ZN7secheck11check_ilsecEv+0x5c4>
    cfd0:	e08f3003 	add	r3, pc, r3
    cfd4:	e1a01003 	mov	r1, r3
    cfd8:	e59f30fc 	ldr	r3, [pc, #252]	; d0dc <_ZN7secheck11check_ilsecEv+0x5c8>
    cfdc:	e08f3003 	add	r3, pc, r3
    cfe0:	e1a02003 	mov	r2, r3
    cfe4:	e1a0300c 	mov	r3, ip
    cfe8:	ebfff1e5 	bl	9784 <__android_log_print@plt>
    cfec:	e51b301c 	ldr	r3, [fp, #-28]
    cff0:	e2833002 	add	r3, r3, #2	; 0x2
    cff4:	e1a03103 	lsl	r3, r3, #2
    cff8:	e51b2024 	ldr	r2, [fp, #-36]
    cffc:	e0823003 	add	r3, r2, r3
    d000:	e5932000 	ldr	r2, [r3]
    d004:	e51b3030 	ldr	r3, [fp, #-48]
    d008:	e1520003 	cmp	r2, r3
    d00c:	0a00000d 	beq	d048 <_ZN7secheck11check_ilsecEv+0x534>
    d010:	e3a00003 	mov	r0, #3	; 0x3
    d014:	e59f30c4 	ldr	r3, [pc, #196]	; d0e0 <_ZN7secheck11check_ilsecEv+0x5cc>
    d018:	e08f3003 	add	r3, pc, r3
    d01c:	e1a01003 	mov	r1, r3
    d020:	e59f30bc 	ldr	r3, [pc, #188]	; d0e4 <_ZN7secheck11check_ilsecEv+0x5d0>
    d024:	e08f3003 	add	r3, pc, r3
    d028:	e1a02003 	mov	r2, r3
    d02c:	ebfff1d4 	bl	9784 <__android_log_print@plt>
    d030:	e51b0024 	ldr	r0, [fp, #-36]
    d034:	e59f10ac 	ldr	r1, [pc, #172]	; d0e8 <_ZN7secheck11check_ilsecEv+0x5d4>
    d038:	e3a02004 	mov	r2, #4	; 0x4
    d03c:	ebfff1c7 	bl	9760 <memcpy@plt>
    d040:	e3a00000 	mov	r0, #0	; 0x0
    d044:	ebfff1d1 	bl	9790 <exit@plt>
    d048:	e3a00003 	mov	r0, #3	; 0x3
    d04c:	e59f3098 	ldr	r3, [pc, #152]	; d0ec <_ZN7secheck11check_ilsecEv+0x5d8>
    d050:	e08f3003 	add	r3, pc, r3
    d054:	e1a01003 	mov	r1, r3
    d058:	e59f3090 	ldr	r3, [pc, #144]	; d0f0 <_ZN7secheck11check_ilsecEv+0x5dc>
    d05c:	e08f3003 	add	r3, pc, r3
    d060:	e1a02003 	mov	r2, r3
    d064:	ebfff1c6 	bl	9784 <__android_log_print@plt>
    d068:	e51b301c 	ldr	r3, [fp, #-28]
    d06c:	e2833004 	add	r3, r3, #4	; 0x4
    d070:	e50b301c 	str	r3, [fp, #-28]
    d074:	e51b3018 	ldr	r3, [fp, #-24]
    d078:	e1a02103 	lsl	r2, r3, #2
    d07c:	e51b301c 	ldr	r3, [fp, #-28]
    d080:	e1520003 	cmp	r2, r3
    d084:	93a03000 	movls	r3, #0	; 0x0
    d088:	83a03001 	movhi	r3, #1	; 0x1
    d08c:	e20330ff 	and	r3, r3, #255	; 0xff
    d090:	e3530000 	cmp	r3, #0	; 0x0
    d094:	1affff9d 	bne	cf10 <_ZN7secheck11check_ilsecEv+0x3fc>
    d098:	e3a0000a 	mov	r0, #10	; 0xa
    d09c:	ebfff1f4 	bl	9874 <sleep@plt>
    d0a0:	eaffff97 	b	cf04 <_ZN7secheck11check_ilsecEv+0x3f0>
    d0a4:	0001e380 	.word	0x0001e380
    d0a8:	fffffe64 	.word	0xfffffe64
    d0ac:	00019e8c 	.word	0x00019e8c
    d0b0:	0001a13c 	.word	0x0001a13c
    d0b4:	00019e10 	.word	0x00019e10
    d0b8:	0001a0e8 	.word	0x0001a0e8
    d0bc:	fffffe08 	.word	0xfffffe08
    d0c0:	fffffe68 	.word	0xfffffe68
    d0c4:	fffffe6c 	.word	0xfffffe6c
    d0c8:	00019c8c 	.word	0x00019c8c
    d0cc:	00019f84 	.word	0x00019f84
    d0d0:	00019be4 	.word	0x00019be4
    d0d4:	00019f08 	.word	0x00019f08
    d0d8:	00019aa8 	.word	0x00019aa8
    d0dc:	00019df8 	.word	0x00019df8
    d0e0:	00019a60 	.word	0x00019a60
    d0e4:	00019df4 	.word	0x00019df4
    d0e8:	fafbfcfd 	.word	0xfafbfcfd
    d0ec:	00019a28 	.word	0x00019a28
    d0f0:	00019df0 	.word	0x00019df0

0000d0f4 <_ZL6handlePv>:
    d0f4:	e92d4800 	push	{fp, lr}
    d0f8:	e28db004 	add	fp, sp, #4	; 0x4
    d0fc:	e24dd018 	sub	sp, sp, #24	; 0x18
    d100:	e50b0018 	str	r0, [fp, #-24]
    d104:	e51b3018 	ldr	r3, [fp, #-24]
    d108:	e50b300c 	str	r3, [fp, #-12]
    d10c:	e3a00003 	mov	r0, #3	; 0x3
    d110:	e59f31a8 	ldr	r3, [pc, #424]	; d2c0 <_ZL6handlePv+0x1cc>
    d114:	e08f3003 	add	r3, pc, r3
    d118:	e1a01003 	mov	r1, r3
    d11c:	e59f31a0 	ldr	r3, [pc, #416]	; d2c4 <_ZL6handlePv+0x1d0>
    d120:	e08f3003 	add	r3, pc, r3
    d124:	e1a02003 	mov	r2, r3
    d128:	ebfff195 	bl	9784 <__android_log_print@plt>
    d12c:	e59f3194 	ldr	r3, [pc, #404]	; d2c8 <_ZL6handlePv+0x1d4>
    d130:	e08f3003 	add	r3, pc, r3
    d134:	e1a00003 	mov	r0, r3
    d138:	ebfff1c4 	bl	9850 <setjmp@plt>
    d13c:	e1a03000 	mov	r3, r0
    d140:	e3530000 	cmp	r3, #0	; 0x0
    d144:	03a03000 	moveq	r3, #0	; 0x0
    d148:	13a03001 	movne	r3, #1	; 0x1
    d14c:	e20330ff 	and	r3, r3, #255	; 0xff
    d150:	e3530000 	cmp	r3, #0	; 0x0
    d154:	0a000001 	beq	d160 <_ZL6handlePv+0x6c>
    d158:	eb003287 	bl	19b7c <_Z8dispatchv>
    d15c:	ea000012 	b	d1ac <_ZL6handlePv+0xb8>
    d160:	e51b000c 	ldr	r0, [fp, #-12]
    d164:	eb00011b 	bl	d5d8 <_ZN9secloader12thread_checkEv>
    d168:	e51b300c 	ldr	r3, [fp, #-12]
    d16c:	e5933000 	ldr	r3, [r3]
    d170:	e2832001 	add	r2, r3, #1	; 0x1
    d174:	e51b300c 	ldr	r3, [fp, #-12]
    d178:	e5832000 	str	r2, [r3]
    d17c:	e51b000c 	ldr	r0, [fp, #-12]
    d180:	eb00012f 	bl	d644 <_ZN9secloader11thread_workEv>
    d184:	e51b300c 	ldr	r3, [fp, #-12]
    d188:	e5933000 	ldr	r3, [r3]
    d18c:	e2832001 	add	r2, r3, #1	; 0x1
    d190:	e51b300c 	ldr	r3, [fp, #-12]
    d194:	e5832000 	str	r2, [r3]
    d198:	e51b300c 	ldr	r3, [fp, #-12]
    d19c:	e5933000 	ldr	r3, [r3]
    d1a0:	e2832001 	add	r2, r3, #1	; 0x1
    d1a4:	e51b300c 	ldr	r3, [fp, #-12]
    d1a8:	e5832000 	str	r2, [r3]
    d1ac:	e3a03000 	mov	r3, #0	; 0x0
    d1b0:	e50b3010 	str	r3, [fp, #-16]
    d1b4:	e51b300c 	ldr	r3, [fp, #-12]
    d1b8:	e5933004 	ldr	r3, [r3, #4]
    d1bc:	e50b3014 	str	r3, [fp, #-20]
    d1c0:	e3a03000 	mov	r3, #0	; 0x0
    d1c4:	e50b3008 	str	r3, [fp, #-8]
    d1c8:	ea000030 	b	d290 <_ZL6handlePv+0x19c>
    d1cc:	e51b3014 	ldr	r3, [fp, #-20]
    d1d0:	e51b2008 	ldr	r2, [fp, #-8]
    d1d4:	e2822008 	add	r2, r2, #8	; 0x8
    d1d8:	e7933102 	ldr	r3, [r3, r2, lsl #2]
    d1dc:	e1a00003 	mov	r0, r3
    d1e0:	e3a01000 	mov	r1, #0	; 0x0
    d1e4:	ebfff1ae 	bl	98a4 <pthread_kill@plt>
    d1e8:	e1a03000 	mov	r3, r0
    d1ec:	e50b3010 	str	r3, [fp, #-16]
    d1f0:	e51b3010 	ldr	r3, [fp, #-16]
    d1f4:	e3530003 	cmp	r3, #3	; 0x3
    d1f8:	1a00000a 	bne	d228 <_ZL6handlePv+0x134>
    d1fc:	e3a00003 	mov	r0, #3	; 0x3
    d200:	e59f30c4 	ldr	r3, [pc, #196]	; d2cc <_ZL6handlePv+0x1d8>
    d204:	e08f3003 	add	r3, pc, r3
    d208:	e1a01003 	mov	r1, r3
    d20c:	e59f30bc 	ldr	r3, [pc, #188]	; d2d0 <_ZL6handlePv+0x1dc>
    d210:	e08f3003 	add	r3, pc, r3
    d214:	e1a02003 	mov	r2, r3
    d218:	e51b3008 	ldr	r3, [fp, #-8]
    d21c:	ebfff158 	bl	9784 <__android_log_print@plt>
    d220:	e3a00000 	mov	r0, #0	; 0x0
    d224:	ebfff159 	bl	9790 <exit@plt>
    d228:	e51b3010 	ldr	r3, [fp, #-16]
    d22c:	e3530016 	cmp	r3, #22	; 0x16
    d230:	1a00000a 	bne	d260 <_ZL6handlePv+0x16c>
    d234:	e3a00003 	mov	r0, #3	; 0x3
    d238:	e59f3094 	ldr	r3, [pc, #148]	; d2d4 <_ZL6handlePv+0x1e0>
    d23c:	e08f3003 	add	r3, pc, r3
    d240:	e1a01003 	mov	r1, r3
    d244:	e59f308c 	ldr	r3, [pc, #140]	; d2d8 <_ZL6handlePv+0x1e4>
    d248:	e08f3003 	add	r3, pc, r3
    d24c:	e1a02003 	mov	r2, r3
    d250:	e51b3008 	ldr	r3, [fp, #-8]
    d254:	ebfff14a 	bl	9784 <__android_log_print@plt>
    d258:	e3a00000 	mov	r0, #0	; 0x0
    d25c:	ebfff14b 	bl	9790 <exit@plt>
    d260:	e3a00003 	mov	r0, #3	; 0x3
    d264:	e59f3070 	ldr	r3, [pc, #112]	; d2dc <_ZL6handlePv+0x1e8>
    d268:	e08f3003 	add	r3, pc, r3
    d26c:	e1a01003 	mov	r1, r3
    d270:	e59f3068 	ldr	r3, [pc, #104]	; d2e0 <_ZL6handlePv+0x1ec>
    d274:	e08f3003 	add	r3, pc, r3
    d278:	e1a02003 	mov	r2, r3
    d27c:	e51b3008 	ldr	r3, [fp, #-8]
    d280:	ebfff13f 	bl	9784 <__android_log_print@plt>
    d284:	e51b3008 	ldr	r3, [fp, #-8]
    d288:	e2833001 	add	r3, r3, #1	; 0x1
    d28c:	e50b3008 	str	r3, [fp, #-8]
    d290:	e51b2008 	ldr	r2, [fp, #-8]
    d294:	e51b3014 	ldr	r3, [fp, #-20]
    d298:	e593300c 	ldr	r3, [r3, #12]
    d29c:	e1520003 	cmp	r2, r3
    d2a0:	23a03000 	movcs	r3, #0	; 0x0
    d2a4:	33a03001 	movcc	r3, #1	; 0x1
    d2a8:	e20330ff 	and	r3, r3, #255	; 0xff
    d2ac:	e3530000 	cmp	r3, #0	; 0x0
    d2b0:	1affffc5 	bne	d1cc <_ZL6handlePv+0xd8>
    d2b4:	e3a00001 	mov	r0, #1	; 0x1
    d2b8:	ebfff16d 	bl	9874 <sleep@plt>
    d2bc:	eaffffbf 	b	d1c0 <_ZL6handlePv+0xcc>
    d2c0:	00019d64 	.word	0x00019d64
    d2c4:	00019d64 	.word	0x00019d64
    d2c8:	0001e4f4 	.word	0x0001e4f4
    d2cc:	00019c74 	.word	0x00019c74
    d2d0:	00019c88 	.word	0x00019c88
    d2d4:	00019c3c 	.word	0x00019c3c
    d2d8:	00019c50 	.word	0x00019c50
    d2dc:	00019c10 	.word	0x00019c10
    d2e0:	00019c44 	.word	0x00019c44

0000d2e4 <_ZN9secloaderC1Ev>:
    d2e4:	e92d4810 	push	{r4, fp, lr}
    d2e8:	e28db008 	add	fp, sp, #8	; 0x8
    d2ec:	e24dd00c 	sub	sp, sp, #12	; 0xc
    d2f0:	e50b0010 	str	r0, [fp, #-16]
    d2f4:	e51b3010 	ldr	r3, [fp, #-16]
    d2f8:	e3a02000 	mov	r2, #0	; 0x0
    d2fc:	e5832000 	str	r2, [r3]
    d300:	e51b3010 	ldr	r3, [fp, #-16]
    d304:	e3a02000 	mov	r2, #0	; 0x0
    d308:	e5832010 	str	r2, [r3, #16]
    d30c:	e51b3010 	ldr	r3, [fp, #-16]
    d310:	e3a02000 	mov	r2, #0	; 0x0
    d314:	e5832014 	str	r2, [r3, #20]
    d318:	e51b3010 	ldr	r3, [fp, #-16]
    d31c:	e3a02000 	mov	r2, #0	; 0x0
    d320:	e5832018 	str	r2, [r3, #24]
    d324:	e3a00008 	mov	r0, #8	; 0x8
    d328:	eb0012ed 	bl	11ee4 <_Znwj>
    d32c:	e1a03000 	mov	r3, r0
    d330:	e1a04003 	mov	r4, r3
    d334:	e1a00004 	mov	r0, r4
    d338:	ebfffa91 	bl	bd84 <_ZN7secheckC1Ev>
    d33c:	e51b3010 	ldr	r3, [fp, #-16]
    d340:	e5834010 	str	r4, [r3, #16]
    d344:	e3a00008 	mov	r0, #8	; 0x8
    d348:	eb0012e5 	bl	11ee4 <_Znwj>
    d34c:	e1a03000 	mov	r3, r0
    d350:	e1a04003 	mov	r4, r3
    d354:	e1a00004 	mov	r0, r4
    d358:	eb000499 	bl	e5c4 <_ZN7secworkC1Ev>
    d35c:	e51b3010 	ldr	r3, [fp, #-16]
    d360:	e5834014 	str	r4, [r3, #20]
    d364:	e59f3094 	ldr	r3, [pc, #148]	; d400 <_ZN9secloaderC1Ev+0x11c>
    d368:	e08f3003 	add	r3, pc, r3
    d36c:	e1a00003 	mov	r0, r3
    d370:	ebfff136 	bl	9850 <setjmp@plt>
    d374:	e1a03000 	mov	r3, r0
    d378:	e3530000 	cmp	r3, #0	; 0x0
    d37c:	03a03000 	moveq	r3, #0	; 0x0
    d380:	13a03001 	movne	r3, #1	; 0x1
    d384:	e20330ff 	and	r3, r3, #255	; 0xff
    d388:	e3530000 	cmp	r3, #0	; 0x0
    d38c:	0a000001 	beq	d398 <_ZN9secloaderC1Ev+0xb4>
    d390:	eb0031f9 	bl	19b7c <_Z8dispatchv>
    d394:	ea00000f 	b	d3d8 <_ZN9secloaderC1Ev+0xf4>
    d398:	e51b3010 	ldr	r3, [fp, #-16]
    d39c:	e5933010 	ldr	r3, [r3, #16]
    d3a0:	e1a00003 	mov	r0, r3
    d3a4:	ebfffb82 	bl	c1b4 <_ZN7secheck15get_thread_poolEv>
    d3a8:	e1a03000 	mov	r3, r0
    d3ac:	e1a02003 	mov	r2, r3
    d3b0:	e51b3010 	ldr	r3, [fp, #-16]
    d3b4:	e5832004 	str	r2, [r3, #4]
    d3b8:	e51b3010 	ldr	r3, [fp, #-16]
    d3bc:	e5933014 	ldr	r3, [r3, #20]
    d3c0:	e1a00003 	mov	r0, r3
    d3c4:	eb0005b8 	bl	eaac <_ZN7secwork15get_thread_poolEv>
    d3c8:	e1a03000 	mov	r3, r0
    d3cc:	e1a02003 	mov	r2, r3
    d3d0:	e51b3010 	ldr	r3, [fp, #-16]
    d3d4:	e5832008 	str	r2, [r3, #8]
    d3d8:	e51b3010 	ldr	r3, [fp, #-16]
    d3dc:	e1a00003 	mov	r0, r3
    d3e0:	e24bd008 	sub	sp, fp, #8	; 0x8
    d3e4:	e8bd8810 	pop	{r4, fp, pc}
    d3e8:	e1a00004 	mov	r0, r4
    d3ec:	eb000d3c 	bl	108e4 <_ZdlPv>
    d3f0:	eb000d3e 	bl	108f0 <__cxa_end_cleanup>
    d3f4:	e1a00004 	mov	r0, r4
    d3f8:	eb000d39 	bl	108e4 <_ZdlPv>
    d3fc:	eb000d3b 	bl	108f0 <__cxa_end_cleanup>
    d400:	0001e2bc 	.word	0x0001e2bc

0000d404 <_ZN9secloaderD1Ev>:
    d404:	e92d4810 	push	{r4, fp, lr}
    d408:	e28db008 	add	fp, sp, #8	; 0x8
    d40c:	e24dd00c 	sub	sp, sp, #12	; 0xc
    d410:	e50b0010 	str	r0, [fp, #-16]
    d414:	e51b3010 	ldr	r3, [fp, #-16]
    d418:	e5933010 	ldr	r3, [r3, #16]
    d41c:	e3530000 	cmp	r3, #0	; 0x0
    d420:	0a000007 	beq	d444 <_ZN9secloaderD1Ev+0x40>
    d424:	e51b3010 	ldr	r3, [fp, #-16]
    d428:	e5934010 	ldr	r4, [r3, #16]
    d42c:	e3540000 	cmp	r4, #0	; 0x0
    d430:	0a000003 	beq	d444 <_ZN9secloaderD1Ev+0x40>
    d434:	e1a00004 	mov	r0, r4
    d438:	ebfffa7c 	bl	be30 <_ZN7secheckD1Ev>
    d43c:	e1a00004 	mov	r0, r4
    d440:	eb000d27 	bl	108e4 <_ZdlPv>
    d444:	e51b3010 	ldr	r3, [fp, #-16]
    d448:	e5933014 	ldr	r3, [r3, #20]
    d44c:	e3530000 	cmp	r3, #0	; 0x0
    d450:	0a000007 	beq	d474 <_ZN9secloaderD1Ev+0x70>
    d454:	e51b3010 	ldr	r3, [fp, #-16]
    d458:	e5934014 	ldr	r4, [r3, #20]
    d45c:	e3540000 	cmp	r4, #0	; 0x0
    d460:	0a000003 	beq	d474 <_ZN9secloaderD1Ev+0x70>
    d464:	e1a00004 	mov	r0, r4
    d468:	eb000480 	bl	e670 <_ZN7secworkD1Ev>
    d46c:	e1a00004 	mov	r0, r4
    d470:	eb000d1b 	bl	108e4 <_ZdlPv>
    d474:	e51b3010 	ldr	r3, [fp, #-16]
    d478:	e5933018 	ldr	r3, [r3, #24]
    d47c:	e3530000 	cmp	r3, #0	; 0x0
    d480:	0a000007 	beq	d4a4 <_ZN9secloaderD1Ev+0xa0>
    d484:	e51b3010 	ldr	r3, [fp, #-16]
    d488:	e5934018 	ldr	r4, [r3, #24]
    d48c:	e3540000 	cmp	r4, #0	; 0x0
    d490:	0a000003 	beq	d4a4 <_ZN9secloaderD1Ev+0xa0>
    d494:	e1a00004 	mov	r0, r4
    d498:	eb00010b 	bl	d8cc <_ZN9secpluginD1Ev>
    d49c:	e1a00004 	mov	r0, r4
    d4a0:	eb000d0f 	bl	108e4 <_ZdlPv>
    d4a4:	e51b3010 	ldr	r3, [fp, #-16]
    d4a8:	e1a00003 	mov	r0, r3
    d4ac:	e24bd008 	sub	sp, fp, #8	; 0x8
    d4b0:	e8bd8810 	pop	{r4, fp, pc}

0000d4b4 <_ZN9secloader6doworkEv>:
    d4b4:	e92d4800 	push	{fp, lr}
    d4b8:	e28db004 	add	fp, sp, #4	; 0x4
    d4bc:	e24dd010 	sub	sp, sp, #16	; 0x10
    d4c0:	e50b0010 	str	r0, [fp, #-16]
    d4c4:	e3a03000 	mov	r3, #0	; 0x0
    d4c8:	e50b3008 	str	r3, [fp, #-8]
    d4cc:	e51b3010 	ldr	r3, [fp, #-16]
    d4d0:	e5933014 	ldr	r3, [r3, #20]
    d4d4:	e3530000 	cmp	r3, #0	; 0x0
    d4d8:	0a000034 	beq	d5b0 <_ZN9secloader6doworkEv+0xfc>
    d4dc:	e3a00003 	mov	r0, #3	; 0x3
    d4e0:	e59f30d4 	ldr	r3, [pc, #212]	; d5bc <_ZN9secloader6doworkEv+0x108>
    d4e4:	e08f3003 	add	r3, pc, r3
    d4e8:	e1a01003 	mov	r1, r3
    d4ec:	e59f30cc 	ldr	r3, [pc, #204]	; d5c0 <_ZN9secloader6doworkEv+0x10c>
    d4f0:	e08f3003 	add	r3, pc, r3
    d4f4:	e1a02003 	mov	r2, r3
    d4f8:	ebfff0a1 	bl	9784 <__android_log_print@plt>
    d4fc:	e51b3010 	ldr	r3, [fp, #-16]
    d500:	e283301c 	add	r3, r3, #28	; 0x1c
    d504:	e1a00003 	mov	r0, r3
    d508:	e3a01000 	mov	r1, #0	; 0x0
    d50c:	e59f30b0 	ldr	r3, [pc, #176]	; d5c4 <_ZN9secloader6doworkEv+0x110>
    d510:	e08f3003 	add	r3, pc, r3
    d514:	e1a02003 	mov	r2, r3
    d518:	e51b3010 	ldr	r3, [fp, #-16]
    d51c:	ebfff0a4 	bl	97b4 <pthread_create@plt>
    d520:	e1a03000 	mov	r3, r0
    d524:	e50b3008 	str	r3, [fp, #-8]
    d528:	e51b3008 	ldr	r3, [fp, #-8]
    d52c:	e3530000 	cmp	r3, #0	; 0x0
    d530:	0a00000a 	beq	d560 <_ZN9secloader6doworkEv+0xac>
    d534:	e3a00003 	mov	r0, #3	; 0x3
    d538:	e59f3088 	ldr	r3, [pc, #136]	; d5c8 <_ZN9secloader6doworkEv+0x114>
    d53c:	e08f3003 	add	r3, pc, r3
    d540:	e1a01003 	mov	r1, r3
    d544:	e59f3080 	ldr	r3, [pc, #128]	; d5cc <_ZN9secloader6doworkEv+0x118>
    d548:	e08f3003 	add	r3, pc, r3
    d54c:	e1a02003 	mov	r2, r3
    d550:	e51b3008 	ldr	r3, [fp, #-8]
    d554:	ebfff08a 	bl	9784 <__android_log_print@plt>
    d558:	e3a00000 	mov	r0, #0	; 0x0
    d55c:	ebfff08b 	bl	9790 <exit@plt>
    d560:	e51b3010 	ldr	r3, [fp, #-16]
    d564:	e5933000 	ldr	r3, [r3]
    d568:	e3530003 	cmp	r3, #3	; 0x3
    d56c:	03a03000 	moveq	r3, #0	; 0x0
    d570:	13a03001 	movne	r3, #1	; 0x1
    d574:	e20330ff 	and	r3, r3, #255	; 0xff
    d578:	e3530000 	cmp	r3, #0	; 0x0
    d57c:	1afffff7 	bne	d560 <_ZN9secloader6doworkEv+0xac>
    d580:	e51b3010 	ldr	r3, [fp, #-16]
    d584:	e3a02000 	mov	r2, #0	; 0x0
    d588:	e583201c 	str	r2, [r3, #28]
    d58c:	e3a00003 	mov	r0, #3	; 0x3
    d590:	e59f3038 	ldr	r3, [pc, #56]	; d5d0 <_ZN9secloader6doworkEv+0x11c>
    d594:	e08f3003 	add	r3, pc, r3
    d598:	e1a01003 	mov	r1, r3
    d59c:	e59f3030 	ldr	r3, [pc, #48]	; d5d4 <_ZN9secloader6doworkEv+0x120>
    d5a0:	e08f3003 	add	r3, pc, r3
    d5a4:	e1a02003 	mov	r2, r3
    d5a8:	ebfff075 	bl	9784 <__android_log_print@plt>
    d5ac:	ea000000 	b	d5b4 <_ZN9secloader6doworkEv+0x100>
    d5b0:	e1a00000 	nop			(mov r0,r0)
    d5b4:	e24bd004 	sub	sp, fp, #4	; 0x4
    d5b8:	e8bd8800 	pop	{fp, pc}
    d5bc:	00019994 	.word	0x00019994
    d5c0:	000199dc 	.word	0x000199dc
    d5c4:	fffffbdc 	.word	0xfffffbdc
    d5c8:	0001993c 	.word	0x0001993c
    d5cc:	00019998 	.word	0x00019998
    d5d0:	000198e4 	.word	0x000198e4
    d5d4:	00019960 	.word	0x00019960

0000d5d8 <_ZN9secloader12thread_checkEv>:
    d5d8:	e92d4800 	push	{fp, lr}
    d5dc:	e28db004 	add	fp, sp, #4	; 0x4
    d5e0:	e24dd008 	sub	sp, sp, #8	; 0x8
    d5e4:	e50b0008 	str	r0, [fp, #-8]
    d5e8:	e59f3050 	ldr	r3, [pc, #80]	; d640 <_ZN9secloader12thread_checkEv+0x68>
    d5ec:	e08f3003 	add	r3, pc, r3
    d5f0:	e1a00003 	mov	r0, r3
    d5f4:	ebfff095 	bl	9850 <setjmp@plt>
    d5f8:	e1a03000 	mov	r3, r0
    d5fc:	e3530000 	cmp	r3, #0	; 0x0
    d600:	03a03000 	moveq	r3, #0	; 0x0
    d604:	13a03001 	movne	r3, #1	; 0x1
    d608:	e20330ff 	and	r3, r3, #255	; 0xff
    d60c:	e3530000 	cmp	r3, #0	; 0x0
    d610:	0a000001 	beq	d61c <_ZN9secloader12thread_checkEv+0x44>
    d614:	eb003158 	bl	19b7c <_Z8dispatchv>
    d618:	ea000004 	b	d630 <_ZN9secloader12thread_checkEv+0x58>
    d61c:	e51b3008 	ldr	r3, [fp, #-8]
    d620:	e5933010 	ldr	r3, [r3, #16]
    d624:	e1a00003 	mov	r0, r3
    d628:	e3a01000 	mov	r1, #0	; 0x0
    d62c:	ebfffa08 	bl	be54 <_ZN7secheck6doworkEPv>
    d630:	e3a03000 	mov	r3, #0	; 0x0
    d634:	e1a00003 	mov	r0, r3
    d638:	e24bd004 	sub	sp, fp, #4	; 0x4
    d63c:	e8bd8800 	pop	{fp, pc}
    d640:	0001e038 	.word	0x0001e038

0000d644 <_ZN9secloader11thread_workEv>:
    d644:	e92d4800 	push	{fp, lr}
    d648:	e28db004 	add	fp, sp, #4	; 0x4
    d64c:	e24dd008 	sub	sp, sp, #8	; 0x8
    d650:	e50b0008 	str	r0, [fp, #-8]
    d654:	e59f3058 	ldr	r3, [pc, #88]	; d6b4 <_ZN9secloader11thread_workEv+0x70>
    d658:	e08f3003 	add	r3, pc, r3
    d65c:	e1a00003 	mov	r0, r3
    d660:	ebfff07a 	bl	9850 <setjmp@plt>
    d664:	e1a03000 	mov	r3, r0
    d668:	e3530000 	cmp	r3, #0	; 0x0
    d66c:	03a03000 	moveq	r3, #0	; 0x0
    d670:	13a03001 	movne	r3, #1	; 0x1
    d674:	e20330ff 	and	r3, r3, #255	; 0xff
    d678:	e3530000 	cmp	r3, #0	; 0x0
    d67c:	0a000001 	beq	d688 <_ZN9secloader11thread_workEv+0x44>
    d680:	eb00313d 	bl	19b7c <_Z8dispatchv>
    d684:	ea000006 	b	d6a4 <_ZN9secloader11thread_workEv+0x60>
    d688:	e51b3008 	ldr	r3, [fp, #-8]
    d68c:	e5932014 	ldr	r2, [r3, #20]
    d690:	e51b3008 	ldr	r3, [fp, #-8]
    d694:	e5933004 	ldr	r3, [r3, #4]
    d698:	e1a00002 	mov	r0, r2
    d69c:	e1a01003 	mov	r1, r3
    d6a0:	eb000400 	bl	e6a8 <_ZN7secwork6doworkEPv>
    d6a4:	e3a03000 	mov	r3, #0	; 0x0
    d6a8:	e1a00003 	mov	r0, r3
    d6ac:	e24bd004 	sub	sp, fp, #4	; 0x4
    d6b0:	e8bd8800 	pop	{fp, pc}
    d6b4:	0001dfcc 	.word	0x0001dfcc

0000d6b8 <_ZN9secloader13thread_pluginEv>:
    d6b8:	e92d4800 	push	{fp, lr}
    d6bc:	e28db004 	add	fp, sp, #4	; 0x4
    d6c0:	e24dd008 	sub	sp, sp, #8	; 0x8
    d6c4:	e50b0008 	str	r0, [fp, #-8]
    d6c8:	e51b3008 	ldr	r3, [fp, #-8]
    d6cc:	e5933018 	ldr	r3, [r3, #24]
    d6d0:	e1a00003 	mov	r0, r3
    d6d4:	e3a01000 	mov	r1, #0	; 0x0
    d6d8:	eb000092 	bl	d928 <_ZN9secplugin6doworkEPv>
    d6dc:	e3a03000 	mov	r3, #0	; 0x0
    d6e0:	e1a00003 	mov	r0, r3
    d6e4:	e24bd004 	sub	sp, fp, #4	; 0x4
    d6e8:	e8bd8800 	pop	{fp, pc}

0000d6ec <_Z24secplugin_check_filehashPc>:
    d6ec:	e92d4800 	push	{fp, lr}
    d6f0:	e28db004 	add	fp, sp, #4	; 0x4
    d6f4:	e24dd010 	sub	sp, sp, #16	; 0x10
    d6f8:	e50b0010 	str	r0, [fp, #-16]
    d6fc:	e3a03000 	mov	r3, #0	; 0x0
    d700:	e50b3008 	str	r3, [fp, #-8]
    d704:	e59f3034 	ldr	r3, [pc, #52]	; d740 <_Z24secplugin_check_filehashPc+0x54>
    d708:	e50b3008 	str	r3, [fp, #-8]
    d70c:	e3a00003 	mov	r0, #3	; 0x3
    d710:	e59f302c 	ldr	r3, [pc, #44]	; d744 <_Z24secplugin_check_filehashPc+0x58>
    d714:	e08f3003 	add	r3, pc, r3
    d718:	e1a01003 	mov	r1, r3
    d71c:	e59f3024 	ldr	r3, [pc, #36]	; d748 <_Z24secplugin_check_filehashPc+0x5c>
    d720:	e08f3003 	add	r3, pc, r3
    d724:	e1a02003 	mov	r2, r3
    d728:	e51b3010 	ldr	r3, [fp, #-16]
    d72c:	ebfff014 	bl	9784 <__android_log_print@plt>
    d730:	e51b3008 	ldr	r3, [fp, #-8]
    d734:	e1a00003 	mov	r0, r3
    d738:	e24bd004 	sub	sp, fp, #4	; 0x4
    d73c:	e8bd8800 	pop	{fp, pc}
    d740:	075bcd15 	.word	0x075bcd15
    d744:	000197fc 	.word	0x000197fc
    d748:	000197fc 	.word	0x000197fc

0000d74c <_ZL16secplugin_threadPv>:
    d74c:	e92d4800 	push	{fp, lr}
    d750:	e28db004 	add	fp, sp, #4	; 0x4
    d754:	e24dd010 	sub	sp, sp, #16	; 0x10
    d758:	e50b0010 	str	r0, [fp, #-16]
    d75c:	e51b3010 	ldr	r3, [fp, #-16]
    d760:	e50b3008 	str	r3, [fp, #-8]
    d764:	e51b3008 	ldr	r3, [fp, #-8]
    d768:	e5933004 	ldr	r3, [r3, #4]
    d76c:	e50b300c 	str	r3, [fp, #-12]
    d770:	e51b3008 	ldr	r3, [fp, #-8]
    d774:	e3530000 	cmp	r3, #0	; 0x0
    d778:	0a000002 	beq	d788 <_ZL16secplugin_threadPv+0x3c>
    d77c:	e51b300c 	ldr	r3, [fp, #-12]
    d780:	e3530000 	cmp	r3, #0	; 0x0
    d784:	1a000009 	bne	d7b0 <_ZL16secplugin_threadPv+0x64>
    d788:	e3a00003 	mov	r0, #3	; 0x3
    d78c:	e59f30ac 	ldr	r3, [pc, #172]	; d840 <_ZL16secplugin_threadPv+0xf4>
    d790:	e08f3003 	add	r3, pc, r3
    d794:	e1a01003 	mov	r1, r3
    d798:	e59f30a4 	ldr	r3, [pc, #164]	; d844 <_ZL16secplugin_threadPv+0xf8>
    d79c:	e08f3003 	add	r3, pc, r3
    d7a0:	e1a02003 	mov	r2, r3
    d7a4:	ebffeff6 	bl	9784 <__android_log_print@plt>
    d7a8:	e3a00000 	mov	r0, #0	; 0x0
    d7ac:	ebffeff7 	bl	9790 <exit@plt>
    d7b0:	e3a00064 	mov	r0, #100	; 0x64
    d7b4:	ebfff02e 	bl	9874 <sleep@plt>
    d7b8:	e51b3008 	ldr	r3, [fp, #-8]
    d7bc:	e5933000 	ldr	r3, [r3]
    d7c0:	e3530001 	cmp	r3, #1	; 0x1
    d7c4:	0a000002 	beq	d7d4 <_ZL16secplugin_threadPv+0x88>
    d7c8:	e3530002 	cmp	r3, #2	; 0x2
    d7cc:	0a00000c 	beq	d804 <_ZL16secplugin_threadPv+0xb8>
    d7d0:	ea000017 	b	d834 <_ZL16secplugin_threadPv+0xe8>
    d7d4:	e3a00003 	mov	r0, #3	; 0x3
    d7d8:	e59f3068 	ldr	r3, [pc, #104]	; d848 <_ZL16secplugin_threadPv+0xfc>
    d7dc:	e08f3003 	add	r3, pc, r3
    d7e0:	e1a01003 	mov	r1, r3
    d7e4:	e59f3060 	ldr	r3, [pc, #96]	; d84c <_ZL16secplugin_threadPv+0x100>
    d7e8:	e08f3003 	add	r3, pc, r3
    d7ec:	e1a02003 	mov	r2, r3
    d7f0:	ebffefe3 	bl	9784 <__android_log_print@plt>
    d7f4:	e51b000c 	ldr	r0, [fp, #-12]
    d7f8:	e3a01000 	mov	r1, #0	; 0x0
    d7fc:	eb000086 	bl	da1c <_ZN9secplugin11plugin_loadEj>
    d800:	ea00000b 	b	d834 <_ZL16secplugin_threadPv+0xe8>
    d804:	e3a00003 	mov	r0, #3	; 0x3
    d808:	e59f3040 	ldr	r3, [pc, #64]	; d850 <_ZL16secplugin_threadPv+0x104>
    d80c:	e08f3003 	add	r3, pc, r3
    d810:	e1a01003 	mov	r1, r3
    d814:	e59f3038 	ldr	r3, [pc, #56]	; d854 <_ZL16secplugin_threadPv+0x108>
    d818:	e08f3003 	add	r3, pc, r3
    d81c:	e1a02003 	mov	r2, r3
    d820:	ebffefd7 	bl	9784 <__android_log_print@plt>
    d824:	e51b000c 	ldr	r0, [fp, #-12]
    d828:	e3a01001 	mov	r1, #1	; 0x1
    d82c:	eb00007a 	bl	da1c <_ZN9secplugin11plugin_loadEj>
    d830:	e1a00000 	nop			(mov r0,r0)
    d834:	e1a00003 	mov	r0, r3
    d838:	e24bd004 	sub	sp, fp, #4	; 0x4
    d83c:	e8bd8800 	pop	{fp, pc}
    d840:	00019780 	.word	0x00019780
    d844:	000197a4 	.word	0x000197a4
    d848:	00019734 	.word	0x00019734
    d84c:	00019788 	.word	0x00019788
    d850:	00019704 	.word	0x00019704
    d854:	00019774 	.word	0x00019774

0000d858 <_ZN9secpluginC1Ev>:
    d858:	e92d4800 	push	{fp, lr}
    d85c:	e28db004 	add	fp, sp, #4	; 0x4
    d860:	e24dd008 	sub	sp, sp, #8	; 0x8
    d864:	e50b0008 	str	r0, [fp, #-8]
    d868:	e59f3050 	ldr	r3, [pc, #80]	; d8c0 <_ZN9secpluginC1Ev+0x68>
    d86c:	e08f3003 	add	r3, pc, r3
    d870:	e59f204c 	ldr	r2, [pc, #76]	; d8c4 <_ZN9secpluginC1Ev+0x6c>
    d874:	e7933002 	ldr	r3, [r3, r2]
    d878:	e5932000 	ldr	r2, [r3]
    d87c:	e51b3008 	ldr	r3, [fp, #-8]
    d880:	e5832004 	str	r2, [r3, #4]
    d884:	e51b3008 	ldr	r3, [fp, #-8]
    d888:	e5932004 	ldr	r2, [r3, #4]
    d88c:	e59f3034 	ldr	r3, [pc, #52]	; d8c8 <_ZN9secpluginC1Ev+0x70>
    d890:	e08f3003 	add	r3, pc, r3
    d894:	e1a00003 	mov	r0, r3
    d898:	e1a01002 	mov	r1, r2
    d89c:	ebfff57a 	bl	ae8c <_Z10pool_startPFPvS_Ej>
    d8a0:	e1a03000 	mov	r3, r0
    d8a4:	e1a02003 	mov	r2, r3
    d8a8:	e51b3008 	ldr	r3, [fp, #-8]
    d8ac:	e5832000 	str	r2, [r3]
    d8b0:	e51b3008 	ldr	r3, [fp, #-8]
    d8b4:	e1a00003 	mov	r0, r3
    d8b8:	e24bd004 	sub	sp, fp, #4	; 0x4
    d8bc:	e8bd8800 	pop	{fp, pc}
    d8c0:	0001d63c 	.word	0x0001d63c
    d8c4:	fffffe70 	.word	0xfffffe70
    d8c8:	fffffeb4 	.word	0xfffffeb4

0000d8cc <_ZN9secpluginD1Ev>:
    d8cc:	e92d4800 	push	{fp, lr}
    d8d0:	e28db004 	add	fp, sp, #4	; 0x4
    d8d4:	e24dd008 	sub	sp, sp, #8	; 0x8
    d8d8:	e50b0008 	str	r0, [fp, #-8]
    d8dc:	e51b3008 	ldr	r3, [fp, #-8]
    d8e0:	e5933000 	ldr	r3, [r3]
    d8e4:	e3530000 	cmp	r3, #0	; 0x0
    d8e8:	0a00000a 	beq	d918 <_ZN9secpluginD1Ev+0x4c>
    d8ec:	e51b3008 	ldr	r3, [fp, #-8]
    d8f0:	e5933000 	ldr	r3, [r3]
    d8f4:	e1a00003 	mov	r0, r3
    d8f8:	ebfff5e5 	bl	b094 <_Z9pool_waitPv>
    d8fc:	e51b3008 	ldr	r3, [fp, #-8]
    d900:	e5933000 	ldr	r3, [r3]
    d904:	e1a00003 	mov	r0, r3
    d908:	ebfff606 	bl	b128 <_Z8pool_endPv>
    d90c:	e51b3008 	ldr	r3, [fp, #-8]
    d910:	e3a02000 	mov	r2, #0	; 0x0
    d914:	e5832000 	str	r2, [r3]
    d918:	e51b3008 	ldr	r3, [fp, #-8]
    d91c:	e1a00003 	mov	r0, r3
    d920:	e24bd004 	sub	sp, fp, #4	; 0x4
    d924:	e8bd8800 	pop	{fp, pc}

0000d928 <_ZN9secplugin6doworkEPv>:
    d928:	e92d4800 	push	{fp, lr}
    d92c:	e28db004 	add	fp, sp, #4	; 0x4
    d930:	e24dd010 	sub	sp, sp, #16	; 0x10
    d934:	e50b0010 	str	r0, [fp, #-16]
    d938:	e50b1014 	str	r1, [fp, #-20]
    d93c:	e3a03000 	mov	r3, #0	; 0x0
    d940:	e50b3008 	str	r3, [fp, #-8]
    d944:	e3a00003 	mov	r0, #3	; 0x3
    d948:	e59f3094 	ldr	r3, [pc, #148]	; d9e4 <_ZN9secplugin6doworkEPv+0xbc>
    d94c:	e08f3003 	add	r3, pc, r3
    d950:	e1a01003 	mov	r1, r3
    d954:	e59f308c 	ldr	r3, [pc, #140]	; d9e8 <_ZN9secplugin6doworkEPv+0xc0>
    d958:	e08f3003 	add	r3, pc, r3
    d95c:	e1a02003 	mov	r2, r3
    d960:	ebffef87 	bl	9784 <__android_log_print@plt>
    d964:	e3a0300c 	mov	r3, #12	; 0xc
    d968:	e50b300c 	str	r3, [fp, #-12]
    d96c:	e51b000c 	ldr	r0, [fp, #-12]
    d970:	ebffef74 	bl	9748 <malloc@plt>
    d974:	e1a03000 	mov	r3, r0
    d978:	e50b3008 	str	r3, [fp, #-8]
    d97c:	e51b0008 	ldr	r0, [fp, #-8]
    d980:	e3a01000 	mov	r1, #0	; 0x0
    d984:	e51b200c 	ldr	r2, [fp, #-12]
    d988:	ebffef71 	bl	9754 <memset@plt>
    d98c:	e51b3008 	ldr	r3, [fp, #-8]
    d990:	e3a02002 	mov	r2, #2	; 0x2
    d994:	e5832000 	str	r2, [r3]
    d998:	e51b3008 	ldr	r3, [fp, #-8]
    d99c:	e51b2010 	ldr	r2, [fp, #-16]
    d9a0:	e5832004 	str	r2, [r3, #4]
    d9a4:	e51b3010 	ldr	r3, [fp, #-16]
    d9a8:	e5933000 	ldr	r3, [r3]
    d9ac:	e1a00003 	mov	r0, r3
    d9b0:	e51b1008 	ldr	r1, [fp, #-8]
    d9b4:	e3a02001 	mov	r2, #1	; 0x1
    d9b8:	ebfff57a 	bl	afa8 <_Z12pool_enqueuePvS_c>
    d9bc:	e3a00003 	mov	r0, #3	; 0x3
    d9c0:	e59f3024 	ldr	r3, [pc, #36]	; d9ec <_ZN9secplugin6doworkEPv+0xc4>
    d9c4:	e08f3003 	add	r3, pc, r3
    d9c8:	e1a01003 	mov	r1, r3
    d9cc:	e59f301c 	ldr	r3, [pc, #28]	; d9f0 <_ZN9secplugin6doworkEPv+0xc8>
    d9d0:	e08f3003 	add	r3, pc, r3
    d9d4:	e1a02003 	mov	r2, r3
    d9d8:	ebffef69 	bl	9784 <__android_log_print@plt>
    d9dc:	e24bd004 	sub	sp, fp, #4	; 0x4
    d9e0:	e8bd8800 	pop	{fp, pc}
    d9e4:	000195c4 	.word	0x000195c4
    d9e8:	00019654 	.word	0x00019654
    d9ec:	0001954c 	.word	0x0001954c
    d9f0:	000195f4 	.word	0x000195f4

0000d9f4 <_ZN9secplugin15get_thread_poolEv>:
    d9f4:	e52db004 	push	{fp}		; (str fp, [sp, #-4]!)
    d9f8:	e28db000 	add	fp, sp, #0	; 0x0
    d9fc:	e24dd00c 	sub	sp, sp, #12	; 0xc
    da00:	e50b0008 	str	r0, [fp, #-8]
    da04:	e51b3008 	ldr	r3, [fp, #-8]
    da08:	e5933000 	ldr	r3, [r3]
    da0c:	e1a00003 	mov	r0, r3
    da10:	e28bd000 	add	sp, fp, #0	; 0x0
    da14:	e8bd0800 	pop	{fp}
    da18:	e12fff1e 	bx	lr

0000da1c <_ZN9secplugin11plugin_loadEj>:
    da1c:	e92d4810 	push	{r4, fp, lr}
    da20:	e28db008 	add	fp, sp, #8	; 0x8
    da24:	e24dd01c 	sub	sp, sp, #28	; 0x1c
    da28:	e50b0020 	str	r0, [fp, #-32]
    da2c:	e50b1024 	str	r1, [fp, #-36]
    da30:	e59f413c 	ldr	r4, [pc, #316]	; db74 <_ZN9secplugin11plugin_loadEj+0x158>
    da34:	e08f4004 	add	r4, pc, r4
    da38:	e3a00003 	mov	r0, #3	; 0x3
    da3c:	e59f3134 	ldr	r3, [pc, #308]	; db78 <_ZN9secplugin11plugin_loadEj+0x15c>
    da40:	e08f3003 	add	r3, pc, r3
    da44:	e1a01003 	mov	r1, r3
    da48:	e59f312c 	ldr	r3, [pc, #300]	; db7c <_ZN9secplugin11plugin_loadEj+0x160>
    da4c:	e08f3003 	add	r3, pc, r3
    da50:	e1a02003 	mov	r2, r3
    da54:	ebffef4a 	bl	9784 <__android_log_print@plt>
    da58:	e24b3018 	sub	r3, fp, #24	; 0x18
    da5c:	e1a00003 	mov	r0, r3
    da60:	eb003ea0 	bl	1d4e8 <_ZN8ilpluginC1Ev>
    da64:	e24b3018 	sub	r3, fp, #24	; 0x18
    da68:	e1a00003 	mov	r0, r3
    da6c:	e59f310c 	ldr	r3, [pc, #268]	; db80 <_ZN9secplugin11plugin_loadEj+0x164>
    da70:	e7943003 	ldr	r3, [r4, r3]
    da74:	e1a01003 	mov	r1, r3
    da78:	eb003ed4 	bl	1d5d0 <_ZN8ilplugin13set_file_hashEPFjPcE>
    da7c:	e59f3100 	ldr	r3, [pc, #256]	; db84 <_ZN9secplugin11plugin_loadEj+0x168>
    da80:	e7943003 	ldr	r3, [r4, r3]
    da84:	e5933000 	ldr	r3, [r3]
    da88:	e3530001 	cmp	r3, #1	; 0x1
    da8c:	1a00000e 	bne	dacc <_ZN9secplugin11plugin_loadEj+0xb0>
    da90:	e3a00003 	mov	r0, #3	; 0x3
    da94:	e59f30ec 	ldr	r3, [pc, #236]	; db88 <_ZN9secplugin11plugin_loadEj+0x16c>
    da98:	e08f3003 	add	r3, pc, r3
    da9c:	e1a01003 	mov	r1, r3
    daa0:	e59f30e4 	ldr	r3, [pc, #228]	; db8c <_ZN9secplugin11plugin_loadEj+0x170>
    daa4:	e08f3003 	add	r3, pc, r3
    daa8:	e1a02003 	mov	r2, r3
    daac:	ebffef34 	bl	9784 <__android_log_print@plt>
    dab0:	e24b3018 	sub	r3, fp, #24	; 0x18
    dab4:	e1a00003 	mov	r0, r3
    dab8:	e59f30d0 	ldr	r3, [pc, #208]	; db90 <_ZN9secplugin11plugin_loadEj+0x174>
    dabc:	e7943003 	ldr	r3, [r4, r3]
    dac0:	e1a01003 	mov	r1, r3
    dac4:	e51b2024 	ldr	r2, [fp, #-36]
    dac8:	eb003ecb 	bl	1d5fc <_ZN8ilplugin9load_fileEPKcj>
    dacc:	e59f30b0 	ldr	r3, [pc, #176]	; db84 <_ZN9secplugin11plugin_loadEj+0x168>
    dad0:	e7943003 	ldr	r3, [r4, r3]
    dad4:	e5933000 	ldr	r3, [r3]
    dad8:	e3530002 	cmp	r3, #2	; 0x2
    dadc:	1a000010 	bne	db24 <_ZN9secplugin11plugin_loadEj+0x108>
    dae0:	e3a00003 	mov	r0, #3	; 0x3
    dae4:	e59f30a8 	ldr	r3, [pc, #168]	; db94 <_ZN9secplugin11plugin_loadEj+0x178>
    dae8:	e08f3003 	add	r3, pc, r3
    daec:	e1a01003 	mov	r1, r3
    daf0:	e59f30a0 	ldr	r3, [pc, #160]	; db98 <_ZN9secplugin11plugin_loadEj+0x17c>
    daf4:	e08f3003 	add	r3, pc, r3
    daf8:	e1a02003 	mov	r2, r3
    dafc:	ebffef20 	bl	9784 <__android_log_print@plt>
    db00:	e59f3094 	ldr	r3, [pc, #148]	; db9c <_ZN9secplugin11plugin_loadEj+0x180>
    db04:	e7943003 	ldr	r3, [r4, r3]
    db08:	e5933000 	ldr	r3, [r3]
    db0c:	e24b2018 	sub	r2, fp, #24	; 0x18
    db10:	e1a00002 	mov	r0, r2
    db14:	e1a01003 	mov	r1, r3
    db18:	e3a02000 	mov	r2, #0	; 0x0
    db1c:	e51b3024 	ldr	r3, [fp, #-36]
    db20:	eb003edc 	bl	1d698 <_ZN8ilplugin8load_memEPvjj>
    db24:	e3a00003 	mov	r0, #3	; 0x3
    db28:	e59f3070 	ldr	r3, [pc, #112]	; dba0 <_ZN9secplugin11plugin_loadEj+0x184>
    db2c:	e08f3003 	add	r3, pc, r3
    db30:	e1a01003 	mov	r1, r3
    db34:	e59f3068 	ldr	r3, [pc, #104]	; dba4 <_ZN9secplugin11plugin_loadEj+0x188>
    db38:	e08f3003 	add	r3, pc, r3
    db3c:	e1a02003 	mov	r2, r3
    db40:	ebffef0f 	bl	9784 <__android_log_print@plt>
    db44:	e3a04001 	mov	r4, #1	; 0x1
    db48:	e24b3018 	sub	r3, fp, #24	; 0x18
    db4c:	e1a00003 	mov	r0, r3
    db50:	eb003e8a 	bl	1d580 <_ZN8ilpluginD1Ev>
    db54:	e1a03004 	mov	r3, r4
    db58:	e1a00003 	mov	r0, r3
    db5c:	e24bd008 	sub	sp, fp, #8	; 0x8
    db60:	e8bd8810 	pop	{r4, fp, pc}
    db64:	e24b3018 	sub	r3, fp, #24	; 0x18
    db68:	e1a00003 	mov	r0, r3
    db6c:	eb003e83 	bl	1d580 <_ZN8ilpluginD1Ev>
    db70:	eb000b5e 	bl	108f0 <__cxa_end_cleanup>
    db74:	0001d474 	.word	0x0001d474
    db78:	000194d0 	.word	0x000194d0
    db7c:	00019590 	.word	0x00019590
    db80:	fffffe74 	.word	0xfffffe74
    db84:	fffffe78 	.word	0xfffffe78
    db88:	00019478 	.word	0x00019478
    db8c:	0001954c 	.word	0x0001954c
    db90:	fffffe7c 	.word	0xfffffe7c
    db94:	00019428 	.word	0x00019428
    db98:	00019514 	.word	0x00019514
    db9c:	fffffe80 	.word	0xfffffe80
    dba0:	000193e4 	.word	0x000193e4
    dba4:	000194e4 	.word	0x000194e4

0000dba8 <_Z21elf_get_rel_sym_indexP13_STRTAB_INFO_P5ilist>:
    dba8:	e92d4800 	push	{fp, lr}
    dbac:	e28db004 	add	fp, sp, #4	; 0x4
    dbb0:	e24dd030 	sub	sp, sp, #48	; 0x30
    dbb4:	e50b0030 	str	r0, [fp, #-48]
    dbb8:	e50b1034 	str	r1, [fp, #-52]
    dbbc:	e3a03000 	mov	r3, #0	; 0x0
    dbc0:	e50b3008 	str	r3, [fp, #-8]
    dbc4:	e3a03000 	mov	r3, #0	; 0x0
    dbc8:	e50b300c 	str	r3, [fp, #-12]
    dbcc:	e3a03000 	mov	r3, #0	; 0x0
    dbd0:	e50b3010 	str	r3, [fp, #-16]
    dbd4:	e3a03000 	mov	r3, #0	; 0x0
    dbd8:	e50b3024 	str	r3, [fp, #-36]
    dbdc:	e3a03000 	mov	r3, #0	; 0x0
    dbe0:	e50b3014 	str	r3, [fp, #-20]
    dbe4:	e3a03000 	mov	r3, #0	; 0x0
    dbe8:	e50b3018 	str	r3, [fp, #-24]
    dbec:	e3a03000 	mov	r3, #0	; 0x0
    dbf0:	e50b301c 	str	r3, [fp, #-28]
    dbf4:	e3a03000 	mov	r3, #0	; 0x0
    dbf8:	e50b3020 	str	r3, [fp, #-32]
    dbfc:	e3a00003 	mov	r0, #3	; 0x3
    dc00:	e59f33bc 	ldr	r3, [pc, #956]	; dfc4 <_Z21elf_get_rel_sym_indexP13_STRTAB_INFO_P5ilist+0x41c>
    dc04:	e08f3003 	add	r3, pc, r3
    dc08:	e1a01003 	mov	r1, r3
    dc0c:	e59f33b4 	ldr	r3, [pc, #948]	; dfc8 <_Z21elf_get_rel_sym_indexP13_STRTAB_INFO_P5ilist+0x420>
    dc10:	e08f3003 	add	r3, pc, r3
    dc14:	e1a02003 	mov	r2, r3
    dc18:	ebffeed9 	bl	9784 <__android_log_print@plt>
    dc1c:	e51b3030 	ldr	r3, [fp, #-48]
    dc20:	e5932000 	ldr	r2, [r3]
    dc24:	e51b3030 	ldr	r3, [fp, #-48]
    dc28:	e5933008 	ldr	r3, [r3, #8]
    dc2c:	e0823003 	add	r3, r2, r3
    dc30:	e50b3024 	str	r3, [fp, #-36]
    dc34:	e51b3030 	ldr	r3, [fp, #-48]
    dc38:	e5932000 	ldr	r2, [r3]
    dc3c:	e51b3030 	ldr	r3, [fp, #-48]
    dc40:	e5933004 	ldr	r3, [r3, #4]
    dc44:	e0823003 	add	r3, r2, r3
    dc48:	e50b3008 	str	r3, [fp, #-8]
    dc4c:	e51b3008 	ldr	r3, [fp, #-8]
    dc50:	e3530000 	cmp	r3, #0	; 0x0
    dc54:	0a000056 	beq	ddb4 <_Z21elf_get_rel_sym_indexP13_STRTAB_INFO_P5ilist+0x20c>
    dc58:	ea00004d 	b	dd94 <_Z21elf_get_rel_sym_indexP13_STRTAB_INFO_P5ilist+0x1ec>
    dc5c:	e51b3008 	ldr	r3, [fp, #-8]
    dc60:	e1a00003 	mov	r0, r3
    dc64:	eb0005ff 	bl	f468 <_Z8get_te32PKv>
    dc68:	e1a03000 	mov	r3, r0
    dc6c:	e3530011 	cmp	r3, #17	; 0x11
    dc70:	13a03000 	movne	r3, #0	; 0x0
    dc74:	03a03001 	moveq	r3, #1	; 0x1
    dc78:	e20330ff 	and	r3, r3, #255	; 0xff
    dc7c:	e3530000 	cmp	r3, #0	; 0x0
    dc80:	0a00000a 	beq	dcb0 <_Z21elf_get_rel_sym_indexP13_STRTAB_INFO_P5ilist+0x108>
    dc84:	e51b3008 	ldr	r3, [fp, #-8]
    dc88:	e2833004 	add	r3, r3, #4	; 0x4
    dc8c:	e1a00003 	mov	r0, r3
    dc90:	eb0005f4 	bl	f468 <_Z8get_te32PKv>
    dc94:	e1a03000 	mov	r3, r0
    dc98:	e1a02003 	mov	r2, r3
    dc9c:	e51b3030 	ldr	r3, [fp, #-48]
    dca0:	e5933000 	ldr	r3, [r3]
    dca4:	e0823003 	add	r3, r2, r3
    dca8:	e50b300c 	str	r3, [fp, #-12]
    dcac:	ea000035 	b	dd88 <_Z21elf_get_rel_sym_indexP13_STRTAB_INFO_P5ilist+0x1e0>
    dcb0:	e51b3008 	ldr	r3, [fp, #-8]
    dcb4:	e1a00003 	mov	r0, r3
    dcb8:	eb0005ea 	bl	f468 <_Z8get_te32PKv>
    dcbc:	e1a03000 	mov	r3, r0
    dcc0:	e3530017 	cmp	r3, #23	; 0x17
    dcc4:	13a03000 	movne	r3, #0	; 0x0
    dcc8:	03a03001 	moveq	r3, #1	; 0x1
    dccc:	e20330ff 	and	r3, r3, #255	; 0xff
    dcd0:	e3530000 	cmp	r3, #0	; 0x0
    dcd4:	0a00000a 	beq	dd04 <_Z21elf_get_rel_sym_indexP13_STRTAB_INFO_P5ilist+0x15c>
    dcd8:	e51b3008 	ldr	r3, [fp, #-8]
    dcdc:	e2833004 	add	r3, r3, #4	; 0x4
    dce0:	e1a00003 	mov	r0, r3
    dce4:	eb0005df 	bl	f468 <_Z8get_te32PKv>
    dce8:	e1a03000 	mov	r3, r0
    dcec:	e1a02003 	mov	r2, r3
    dcf0:	e51b3030 	ldr	r3, [fp, #-48]
    dcf4:	e5933000 	ldr	r3, [r3]
    dcf8:	e0823003 	add	r3, r2, r3
    dcfc:	e50b3010 	str	r3, [fp, #-16]
    dd00:	ea000020 	b	dd88 <_Z21elf_get_rel_sym_indexP13_STRTAB_INFO_P5ilist+0x1e0>
    dd04:	e51b3008 	ldr	r3, [fp, #-8]
    dd08:	e1a00003 	mov	r0, r3
    dd0c:	eb0005d5 	bl	f468 <_Z8get_te32PKv>
    dd10:	e1a03000 	mov	r3, r0
    dd14:	e3530012 	cmp	r3, #18	; 0x12
    dd18:	13a03000 	movne	r3, #0	; 0x0
    dd1c:	03a03001 	moveq	r3, #1	; 0x1
    dd20:	e20330ff 	and	r3, r3, #255	; 0xff
    dd24:	e3530000 	cmp	r3, #0	; 0x0
    dd28:	0a000006 	beq	dd48 <_Z21elf_get_rel_sym_indexP13_STRTAB_INFO_P5ilist+0x1a0>
    dd2c:	e51b3008 	ldr	r3, [fp, #-8]
    dd30:	e2833004 	add	r3, r3, #4	; 0x4
    dd34:	e1a00003 	mov	r0, r3
    dd38:	eb0005ca 	bl	f468 <_Z8get_te32PKv>
    dd3c:	e1a03000 	mov	r3, r0
    dd40:	e50b3014 	str	r3, [fp, #-20]
    dd44:	ea00000f 	b	dd88 <_Z21elf_get_rel_sym_indexP13_STRTAB_INFO_P5ilist+0x1e0>
    dd48:	e51b3008 	ldr	r3, [fp, #-8]
    dd4c:	e1a00003 	mov	r0, r3
    dd50:	eb0005c4 	bl	f468 <_Z8get_te32PKv>
    dd54:	e1a03000 	mov	r3, r0
    dd58:	e3530002 	cmp	r3, #2	; 0x2
    dd5c:	13a03000 	movne	r3, #0	; 0x0
    dd60:	03a03001 	moveq	r3, #1	; 0x1
    dd64:	e20330ff 	and	r3, r3, #255	; 0xff
    dd68:	e3530000 	cmp	r3, #0	; 0x0
    dd6c:	0a000005 	beq	dd88 <_Z21elf_get_rel_sym_indexP13_STRTAB_INFO_P5ilist+0x1e0>
    dd70:	e51b3008 	ldr	r3, [fp, #-8]
    dd74:	e2833004 	add	r3, r3, #4	; 0x4
    dd78:	e1a00003 	mov	r0, r3
    dd7c:	eb0005b9 	bl	f468 <_Z8get_te32PKv>
    dd80:	e1a03000 	mov	r3, r0
    dd84:	e50b3018 	str	r3, [fp, #-24]
    dd88:	e51b3008 	ldr	r3, [fp, #-8]
    dd8c:	e2833008 	add	r3, r3, #8	; 0x8
    dd90:	e50b3008 	str	r3, [fp, #-8]
    dd94:	e51b3008 	ldr	r3, [fp, #-8]
    dd98:	e5933000 	ldr	r3, [r3]
    dd9c:	e3530000 	cmp	r3, #0	; 0x0
    dda0:	03a03000 	moveq	r3, #0	; 0x0
    dda4:	13a03001 	movne	r3, #1	; 0x1
    dda8:	e20330ff 	and	r3, r3, #255	; 0xff
    ddac:	e3530000 	cmp	r3, #0	; 0x0
    ddb0:	1affffa9 	bne	dc5c <_Z21elf_get_rel_sym_indexP13_STRTAB_INFO_P5ilist+0xb4>
    ddb4:	e3a03000 	mov	r3, #0	; 0x0
    ddb8:	e50b301c 	str	r3, [fp, #-28]
    ddbc:	ea000033 	b	de90 <_Z21elf_get_rel_sym_indexP13_STRTAB_INFO_P5ilist+0x2e8>
    ddc0:	e51b300c 	ldr	r3, [fp, #-12]
    ddc4:	e5933004 	ldr	r3, [r3, #4]
    ddc8:	e1a03423 	lsr	r3, r3, #8
    ddcc:	e50b3028 	str	r3, [fp, #-40]
    ddd0:	e51b3028 	ldr	r3, [fp, #-40]
    ddd4:	e3530000 	cmp	r3, #0	; 0x0
    ddd8:	0a000026 	beq	de78 <_Z21elf_get_rel_sym_indexP13_STRTAB_INFO_P5ilist+0x2d0>
    dddc:	e51b3028 	ldr	r3, [fp, #-40]
    dde0:	e1a03203 	lsl	r3, r3, #4
    dde4:	e51b2024 	ldr	r2, [fp, #-36]
    dde8:	e0823003 	add	r3, r2, r3
    ddec:	e5933000 	ldr	r3, [r3]
    ddf0:	e3530000 	cmp	r3, #0	; 0x0
    ddf4:	0a00001f 	beq	de78 <_Z21elf_get_rel_sym_indexP13_STRTAB_INFO_P5ilist+0x2d0>
    ddf8:	e51b3030 	ldr	r3, [fp, #-48]
    ddfc:	e5932000 	ldr	r2, [r3]
    de00:	e51b3030 	ldr	r3, [fp, #-48]
    de04:	e593300c 	ldr	r3, [r3, #12]
    de08:	e0822003 	add	r2, r2, r3
    de0c:	e51b3028 	ldr	r3, [fp, #-40]
    de10:	e1a03203 	lsl	r3, r3, #4
    de14:	e51b1024 	ldr	r1, [fp, #-36]
    de18:	e0813003 	add	r3, r1, r3
    de1c:	e5933000 	ldr	r3, [r3]
    de20:	e0823003 	add	r3, r2, r3
    de24:	e1a0c003 	mov	ip, r3
    de28:	e3a00003 	mov	r0, #3	; 0x3
    de2c:	e59f3198 	ldr	r3, [pc, #408]	; dfcc <_Z21elf_get_rel_sym_indexP13_STRTAB_INFO_P5ilist+0x424>
    de30:	e08f3003 	add	r3, pc, r3
    de34:	e1a01003 	mov	r1, r3
    de38:	e59f3190 	ldr	r3, [pc, #400]	; dfd0 <_Z21elf_get_rel_sym_indexP13_STRTAB_INFO_P5ilist+0x428>
    de3c:	e08f3003 	add	r3, pc, r3
    de40:	e1a02003 	mov	r2, r3
    de44:	e1a0300c 	mov	r3, ip
    de48:	ebffee4d 	bl	9784 <__android_log_print@plt>
    de4c:	e51b3028 	ldr	r3, [fp, #-40]
    de50:	e1a03203 	lsl	r3, r3, #4
    de54:	e51b2024 	ldr	r2, [fp, #-36]
    de58:	e0823003 	add	r3, r2, r3
    de5c:	e5933000 	ldr	r3, [r3]
    de60:	e51b0034 	ldr	r0, [fp, #-52]
    de64:	e1a01003 	mov	r1, r3
    de68:	ebfff21f 	bl	a6ec <_ZN5ilist9push_backEj>
    de6c:	e51b3020 	ldr	r3, [fp, #-32]
    de70:	e2833001 	add	r3, r3, #1	; 0x1
    de74:	e50b3020 	str	r3, [fp, #-32]
    de78:	e51b301c 	ldr	r3, [fp, #-28]
    de7c:	e2833001 	add	r3, r3, #1	; 0x1
    de80:	e50b301c 	str	r3, [fp, #-28]
    de84:	e51b300c 	ldr	r3, [fp, #-12]
    de88:	e2833008 	add	r3, r3, #8	; 0x8
    de8c:	e50b300c 	str	r3, [fp, #-12]
    de90:	e51b3014 	ldr	r3, [fp, #-20]
    de94:	e1a021a3 	lsr	r2, r3, #3
    de98:	e51b301c 	ldr	r3, [fp, #-28]
    de9c:	e1520003 	cmp	r2, r3
    dea0:	93a03000 	movls	r3, #0	; 0x0
    dea4:	83a03001 	movhi	r3, #1	; 0x1
    dea8:	e20330ff 	and	r3, r3, #255	; 0xff
    deac:	e3530000 	cmp	r3, #0	; 0x0
    deb0:	1affffc2 	bne	ddc0 <_Z21elf_get_rel_sym_indexP13_STRTAB_INFO_P5ilist+0x218>
    deb4:	e3a03000 	mov	r3, #0	; 0x0
    deb8:	e50b301c 	str	r3, [fp, #-28]
    debc:	ea000033 	b	df90 <_Z21elf_get_rel_sym_indexP13_STRTAB_INFO_P5ilist+0x3e8>
    dec0:	e51b3010 	ldr	r3, [fp, #-16]
    dec4:	e5933004 	ldr	r3, [r3, #4]
    dec8:	e1a03423 	lsr	r3, r3, #8
    decc:	e50b302c 	str	r3, [fp, #-44]
    ded0:	e51b302c 	ldr	r3, [fp, #-44]
    ded4:	e3530000 	cmp	r3, #0	; 0x0
    ded8:	0a000026 	beq	df78 <_Z21elf_get_rel_sym_indexP13_STRTAB_INFO_P5ilist+0x3d0>
    dedc:	e51b302c 	ldr	r3, [fp, #-44]
    dee0:	e1a03203 	lsl	r3, r3, #4
    dee4:	e51b2024 	ldr	r2, [fp, #-36]
    dee8:	e0823003 	add	r3, r2, r3
    deec:	e5933000 	ldr	r3, [r3]
    def0:	e3530000 	cmp	r3, #0	; 0x0
    def4:	0a00001f 	beq	df78 <_Z21elf_get_rel_sym_indexP13_STRTAB_INFO_P5ilist+0x3d0>
    def8:	e51b3030 	ldr	r3, [fp, #-48]
    defc:	e5932000 	ldr	r2, [r3]
    df00:	e51b3030 	ldr	r3, [fp, #-48]
    df04:	e593300c 	ldr	r3, [r3, #12]
    df08:	e0822003 	add	r2, r2, r3
    df0c:	e51b302c 	ldr	r3, [fp, #-44]
    df10:	e1a03203 	lsl	r3, r3, #4
    df14:	e51b1024 	ldr	r1, [fp, #-36]
    df18:	e0813003 	add	r3, r1, r3
    df1c:	e5933000 	ldr	r3, [r3]
    df20:	e0823003 	add	r3, r2, r3
    df24:	e1a0c003 	mov	ip, r3
    df28:	e3a00003 	mov	r0, #3	; 0x3
    df2c:	e59f30a0 	ldr	r3, [pc, #160]	; dfd4 <_Z21elf_get_rel_sym_indexP13_STRTAB_INFO_P5ilist+0x42c>
    df30:	e08f3003 	add	r3, pc, r3
    df34:	e1a01003 	mov	r1, r3
    df38:	e59f3098 	ldr	r3, [pc, #152]	; dfd8 <_Z21elf_get_rel_sym_indexP13_STRTAB_INFO_P5ilist+0x430>
    df3c:	e08f3003 	add	r3, pc, r3
    df40:	e1a02003 	mov	r2, r3
    df44:	e1a0300c 	mov	r3, ip
    df48:	ebffee0d 	bl	9784 <__android_log_print@plt>
    df4c:	e51b302c 	ldr	r3, [fp, #-44]
    df50:	e1a03203 	lsl	r3, r3, #4
    df54:	e51b2024 	ldr	r2, [fp, #-36]
    df58:	e0823003 	add	r3, r2, r3
    df5c:	e5933000 	ldr	r3, [r3]
    df60:	e51b0034 	ldr	r0, [fp, #-52]
    df64:	e1a01003 	mov	r1, r3
    df68:	ebfff1df 	bl	a6ec <_ZN5ilist9push_backEj>
    df6c:	e51b3020 	ldr	r3, [fp, #-32]
    df70:	e2833001 	add	r3, r3, #1	; 0x1
    df74:	e50b3020 	str	r3, [fp, #-32]
    df78:	e51b301c 	ldr	r3, [fp, #-28]
    df7c:	e2833001 	add	r3, r3, #1	; 0x1
    df80:	e50b301c 	str	r3, [fp, #-28]
    df84:	e51b3010 	ldr	r3, [fp, #-16]
    df88:	e2833008 	add	r3, r3, #8	; 0x8
    df8c:	e50b3010 	str	r3, [fp, #-16]
    df90:	e51b3018 	ldr	r3, [fp, #-24]
    df94:	e1a021a3 	lsr	r2, r3, #3
    df98:	e51b301c 	ldr	r3, [fp, #-28]
    df9c:	e1520003 	cmp	r2, r3
    dfa0:	93a03000 	movls	r3, #0	; 0x0
    dfa4:	83a03001 	movhi	r3, #1	; 0x1
    dfa8:	e20330ff 	and	r3, r3, #255	; 0xff
    dfac:	e3530000 	cmp	r3, #0	; 0x0
    dfb0:	1affffc2 	bne	dec0 <_Z21elf_get_rel_sym_indexP13_STRTAB_INFO_P5ilist+0x318>
    dfb4:	e51b3020 	ldr	r3, [fp, #-32]
    dfb8:	e1a00003 	mov	r0, r3
    dfbc:	e24bd004 	sub	sp, fp, #4	; 0x4
    dfc0:	e8bd8800 	pop	{fp, pc}
    dfc4:	00019430 	.word	0x00019430
    dfc8:	00019430 	.word	0x00019430
    dfcc:	00019204 	.word	0x00019204
    dfd0:	00019218 	.word	0x00019218
    dfd4:	00019104 	.word	0x00019104
    dfd8:	00019118 	.word	0x00019118

0000dfdc <_Z18dog_decrypt_strtabjjP13_STRTAB_INFO_>:
    dfdc:	e92d4810 	push	{r4, fp, lr}
    dfe0:	e28db008 	add	fp, sp, #8	; 0x8
    dfe4:	e24dd054 	sub	sp, sp, #84	; 0x54
    dfe8:	e50b0048 	str	r0, [fp, #-72]
    dfec:	e50b104c 	str	r1, [fp, #-76]
    dff0:	e50b2050 	str	r2, [fp, #-80]
    dff4:	e3a03000 	mov	r3, #0	; 0x0
    dff8:	e50b3014 	str	r3, [fp, #-20]
    dffc:	e3a03000 	mov	r3, #0	; 0x0
    e000:	e50b3018 	str	r3, [fp, #-24]
    e004:	e24b303c 	sub	r3, fp, #60	; 0x3c
    e008:	e1a00003 	mov	r0, r3
    e00c:	ebfff194 	bl	a664 <_ZN5ilistC1Ev>
    e010:	e3a03000 	mov	r3, #0	; 0x0
    e014:	e50b301c 	str	r3, [fp, #-28]
    e018:	e51b304c 	ldr	r3, [fp, #-76]
    e01c:	e3530000 	cmp	r3, #0	; 0x0
    e020:	0a000002 	beq	e030 <_Z18dog_decrypt_strtabjjP13_STRTAB_INFO_+0x54>
    e024:	e51b3050 	ldr	r3, [fp, #-80]
    e028:	e3530000 	cmp	r3, #0	; 0x0
    e02c:	1a000001 	bne	e038 <_Z18dog_decrypt_strtabjjP13_STRTAB_INFO_+0x5c>
    e030:	e3a04000 	mov	r4, #0	; 0x0
    e034:	ea00009b 	b	e2a8 <_Z18dog_decrypt_strtabjjP13_STRTAB_INFO_+0x2cc>
    e038:	e3a00003 	mov	r0, #3	; 0x3
    e03c:	e59f329c 	ldr	r3, [pc, #668]	; e2e0 <_Z18dog_decrypt_strtabjjP13_STRTAB_INFO_+0x304>
    e040:	e08f3003 	add	r3, pc, r3
    e044:	e1a01003 	mov	r1, r3
    e048:	e59f3294 	ldr	r3, [pc, #660]	; e2e4 <_Z18dog_decrypt_strtabjjP13_STRTAB_INFO_+0x308>
    e04c:	e08f3003 	add	r3, pc, r3
    e050:	e1a02003 	mov	r2, r3
    e054:	ebffedca 	bl	9784 <__android_log_print@plt>
    e058:	ebffee14 	bl	98b0 <clock@plt>
    e05c:	e50b0020 	str	r0, [fp, #-32]
    e060:	e51b3050 	ldr	r3, [fp, #-80]
    e064:	e5932000 	ldr	r2, [r3]
    e068:	e51b3050 	ldr	r3, [fp, #-80]
    e06c:	e5933008 	ldr	r3, [r3, #8]
    e070:	e0823003 	add	r3, r2, r3
    e074:	e50b3014 	str	r3, [fp, #-20]
    e078:	e51b3050 	ldr	r3, [fp, #-80]
    e07c:	e5932000 	ldr	r2, [r3]
    e080:	e51b3050 	ldr	r3, [fp, #-80]
    e084:	e593300c 	ldr	r3, [r3, #12]
    e088:	e0823003 	add	r3, r2, r3
    e08c:	e50b3018 	str	r3, [fp, #-24]
    e090:	e51b3048 	ldr	r3, [fp, #-72]
    e094:	e3530000 	cmp	r3, #0	; 0x0
    e098:	0a000005 	beq	e0b4 <_Z18dog_decrypt_strtabjjP13_STRTAB_INFO_+0xd8>
    e09c:	e24b303c 	sub	r3, fp, #60	; 0x3c
    e0a0:	e51b0050 	ldr	r0, [fp, #-80]
    e0a4:	e1a01003 	mov	r1, r3
    e0a8:	ebfffebe 	bl	dba8 <_Z21elf_get_rel_sym_indexP13_STRTAB_INFO_P5ilist>
    e0ac:	e1a03000 	mov	r3, r0
    e0b0:	e50b301c 	str	r3, [fp, #-28]
    e0b4:	e3a03000 	mov	r3, #0	; 0x0
    e0b8:	e54b3021 	strb	r3, [fp, #-33]
    e0bc:	e3a03000 	mov	r3, #0	; 0x0
    e0c0:	e50b3010 	str	r3, [fp, #-16]
    e0c4:	ea000047 	b	e1e8 <_Z18dog_decrypt_strtabjjP13_STRTAB_INFO_+0x20c>
    e0c8:	e3a03000 	mov	r3, #0	; 0x0
    e0cc:	e54b3021 	strb	r3, [fp, #-33]
    e0d0:	e51b3010 	ldr	r3, [fp, #-16]
    e0d4:	e1a03203 	lsl	r3, r3, #4
    e0d8:	e51b2014 	ldr	r2, [fp, #-20]
    e0dc:	e0823003 	add	r3, r2, r3
    e0e0:	e5933004 	ldr	r3, [r3, #4]
    e0e4:	e3530000 	cmp	r3, #0	; 0x0
    e0e8:	0a00003b 	beq	e1dc <_Z18dog_decrypt_strtabjjP13_STRTAB_INFO_+0x200>
    e0ec:	e51b3010 	ldr	r3, [fp, #-16]
    e0f0:	e1a03203 	lsl	r3, r3, #4
    e0f4:	e51b2014 	ldr	r2, [fp, #-20]
    e0f8:	e0823003 	add	r3, r2, r3
    e0fc:	e5933000 	ldr	r3, [r3]
    e100:	e24b203c 	sub	r2, fp, #60	; 0x3c
    e104:	e1a00002 	mov	r0, r2
    e108:	e1a01003 	mov	r1, r3
    e10c:	ebfff1d8 	bl	a874 <_ZN5ilist5hasitEj>
    e110:	e1a03000 	mov	r3, r0
    e114:	e54b3021 	strb	r3, [fp, #-33]
    e118:	e55b3021 	ldrb	r3, [fp, #-33]
    e11c:	e3530000 	cmp	r3, #0	; 0x0
    e120:	1a00002c 	bne	e1d8 <_Z18dog_decrypt_strtabjjP13_STRTAB_INFO_+0x1fc>
    e124:	e51b3010 	ldr	r3, [fp, #-16]
    e128:	e1a03203 	lsl	r3, r3, #4
    e12c:	e51b2014 	ldr	r2, [fp, #-20]
    e130:	e0823003 	add	r3, r2, r3
    e134:	e5932000 	ldr	r2, [r3]
    e138:	e51b3018 	ldr	r3, [fp, #-24]
    e13c:	e0823003 	add	r3, r2, r3
    e140:	e50b3028 	str	r3, [fp, #-40]
    e144:	e51b0028 	ldr	r0, [fp, #-40]
    e148:	ebffed87 	bl	976c <strlen@plt>
    e14c:	e1a03000 	mov	r3, r0
    e150:	e50b3040 	str	r3, [fp, #-64]
    e154:	e51b3010 	ldr	r3, [fp, #-16]
    e158:	e1a03203 	lsl	r3, r3, #4
    e15c:	e51b2014 	ldr	r2, [fp, #-20]
    e160:	e0822003 	add	r2, r2, r3
    e164:	e51b3040 	ldr	r3, [fp, #-64]
    e168:	e24b1040 	sub	r1, fp, #64	; 0x40
    e16c:	e58d1000 	str	r1, [sp]
    e170:	e51b104c 	ldr	r1, [fp, #-76]
    e174:	e58d1004 	str	r1, [sp, #4]
    e178:	e1a00002 	mov	r0, r2
    e17c:	e51b1028 	ldr	r1, [fp, #-40]
    e180:	e1a02003 	mov	r2, r3
    e184:	e51b3028 	ldr	r3, [fp, #-40]
    e188:	eb0030ba 	bl	1a478 <tdog_decrypt_inside_name>
    e18c:	e3a00003 	mov	r0, #3	; 0x3
    e190:	e59f3150 	ldr	r3, [pc, #336]	; e2e8 <_Z18dog_decrypt_strtabjjP13_STRTAB_INFO_+0x30c>
    e194:	e08f3003 	add	r3, pc, r3
    e198:	e1a01003 	mov	r1, r3
    e19c:	e59f3148 	ldr	r3, [pc, #328]	; e2ec <_Z18dog_decrypt_strtabjjP13_STRTAB_INFO_+0x310>
    e1a0:	e08f3003 	add	r3, pc, r3
    e1a4:	e1a02003 	mov	r2, r3
    e1a8:	e51b3028 	ldr	r3, [fp, #-40]
    e1ac:	ebffed74 	bl	9784 <__android_log_print@plt>
    e1b0:	e51b3010 	ldr	r3, [fp, #-16]
    e1b4:	e1a03203 	lsl	r3, r3, #4
    e1b8:	e51b2014 	ldr	r2, [fp, #-20]
    e1bc:	e0823003 	add	r3, r2, r3
    e1c0:	e5933000 	ldr	r3, [r3]
    e1c4:	e24b203c 	sub	r2, fp, #60	; 0x3c
    e1c8:	e1a00002 	mov	r0, r2
    e1cc:	e1a01003 	mov	r1, r3
    e1d0:	ebfff145 	bl	a6ec <_ZN5ilist9push_backEj>
    e1d4:	ea000000 	b	e1dc <_Z18dog_decrypt_strtabjjP13_STRTAB_INFO_+0x200>
    e1d8:	e1a00000 	nop			(mov r0,r0)
    e1dc:	e51b3010 	ldr	r3, [fp, #-16]
    e1e0:	e2833001 	add	r3, r3, #1	; 0x1
    e1e4:	e50b3010 	str	r3, [fp, #-16]
    e1e8:	e51b3050 	ldr	r3, [fp, #-80]
    e1ec:	e5932010 	ldr	r2, [r3, #16]
    e1f0:	e51b3010 	ldr	r3, [fp, #-16]
    e1f4:	e1520003 	cmp	r2, r3
    e1f8:	93a03000 	movls	r3, #0	; 0x0
    e1fc:	83a03001 	movhi	r3, #1	; 0x1
    e200:	e20330ff 	and	r3, r3, #255	; 0xff
    e204:	e3530000 	cmp	r3, #0	; 0x0
    e208:	1affffae 	bne	e0c8 <_Z18dog_decrypt_strtabjjP13_STRTAB_INFO_+0xec>
    e20c:	e24b303c 	sub	r3, fp, #60	; 0x3c
    e210:	e1a00003 	mov	r0, r3
    e214:	ebfff170 	bl	a7dc <_ZN5ilist5clearEv>
    e218:	e3a00003 	mov	r0, #3	; 0x3
    e21c:	e59f30cc 	ldr	r3, [pc, #204]	; e2f0 <_Z18dog_decrypt_strtabjjP13_STRTAB_INFO_+0x314>
    e220:	e08f3003 	add	r3, pc, r3
    e224:	e1a01003 	mov	r1, r3
    e228:	e59f30c4 	ldr	r3, [pc, #196]	; e2f4 <_Z18dog_decrypt_strtabjjP13_STRTAB_INFO_+0x318>
    e22c:	e08f3003 	add	r3, pc, r3
    e230:	e1a02003 	mov	r2, r3
    e234:	ebffed52 	bl	9784 <__android_log_print@plt>
    e238:	ebffed9c 	bl	98b0 <clock@plt>
    e23c:	e50b002c 	str	r0, [fp, #-44]
    e240:	e51b202c 	ldr	r2, [fp, #-44]
    e244:	e51b3020 	ldr	r3, [fp, #-32]
    e248:	e0633002 	rsb	r3, r3, r2
    e24c:	e1a00003 	mov	r0, r3
    e250:	eb0053dd 	bl	231cc <__aeabi_i2d>
    e254:	e1a02000 	mov	r2, r0
    e258:	e1a03001 	mov	r3, r1
    e25c:	e1a00002 	mov	r0, r2
    e260:	e1a01003 	mov	r1, r3
    e264:	e28f306c 	add	r3, pc, #108	; 0x6c
    e268:	e1c320d0 	ldrd	r2, [r3]
    e26c:	eb0054a8 	bl	23514 <__aeabi_ddiv>
    e270:	e1a02000 	mov	r2, r0
    e274:	e1a03001 	mov	r3, r1
    e278:	e14b23f4 	strd	r2, [fp, #-52]
    e27c:	e14b23d4 	ldrd	r2, [fp, #-52]
    e280:	e1cd20f0 	strd	r2, [sp]
    e284:	e3a00003 	mov	r0, #3	; 0x3
    e288:	e59f3068 	ldr	r3, [pc, #104]	; e2f8 <_Z18dog_decrypt_strtabjjP13_STRTAB_INFO_+0x31c>
    e28c:	e08f3003 	add	r3, pc, r3
    e290:	e1a01003 	mov	r1, r3
    e294:	e59f3060 	ldr	r3, [pc, #96]	; e2fc <_Z18dog_decrypt_strtabjjP13_STRTAB_INFO_+0x320>
    e298:	e08f3003 	add	r3, pc, r3
    e29c:	e1a02003 	mov	r2, r3
    e2a0:	ebffed37 	bl	9784 <__android_log_print@plt>
    e2a4:	e3a04000 	mov	r4, #0	; 0x0
    e2a8:	e24b303c 	sub	r3, fp, #60	; 0x3c
    e2ac:	e1a00003 	mov	r0, r3
    e2b0:	ebfff0fa 	bl	a6a0 <_ZN5ilistD1Ev>
    e2b4:	e1a03004 	mov	r3, r4
    e2b8:	e1a00003 	mov	r0, r3
    e2bc:	e24bd008 	sub	sp, fp, #8	; 0x8
    e2c0:	e8bd8810 	pop	{r4, fp, pc}
    e2c4:	e24b303c 	sub	r3, fp, #60	; 0x3c
    e2c8:	e1a00003 	mov	r0, r3
    e2cc:	ebfff0f3 	bl	a6a0 <_ZN5ilistD1Ev>
    e2d0:	eb000986 	bl	108f0 <__cxa_end_cleanup>
    e2d4:	e1a00000 	nop			(mov r0,r0)
    e2d8:	00000000 	.word	0x00000000
    e2dc:	412e8480 	.word	0x412e8480
    e2e0:	00018ff4 	.word	0x00018ff4
    e2e4:	00019018 	.word	0x00019018
    e2e8:	00018ea0 	.word	0x00018ea0
    e2ec:	00018ed8 	.word	0x00018ed8
    e2f0:	00018e14 	.word	0x00018e14
    e2f4:	00018e60 	.word	0x00018e60
    e2f8:	00018da8 	.word	0x00018da8
    e2fc:	00018e08 	.word	0x00018e08

0000e300 <_ZL14secwork_threadPv>:
    e300:	e92d4800 	push	{fp, lr}
    e304:	e28db004 	add	fp, sp, #4	; 0x4
    e308:	e24dd010 	sub	sp, sp, #16	; 0x10
    e30c:	e50b0010 	str	r0, [fp, #-16]
    e310:	e59f30d8 	ldr	r3, [pc, #216]	; e3f0 <_ZL14secwork_threadPv+0xf0>
    e314:	e08f3003 	add	r3, pc, r3
    e318:	e51b2010 	ldr	r2, [fp, #-16]
    e31c:	e50b2008 	str	r2, [fp, #-8]
    e320:	e51b2008 	ldr	r2, [fp, #-8]
    e324:	e5922004 	ldr	r2, [r2, #4]
    e328:	e50b200c 	str	r2, [fp, #-12]
    e32c:	e51b2008 	ldr	r2, [fp, #-8]
    e330:	e3520000 	cmp	r2, #0	; 0x0
    e334:	0a000002 	beq	e344 <_ZL14secwork_threadPv+0x44>
    e338:	e51b200c 	ldr	r2, [fp, #-12]
    e33c:	e3520000 	cmp	r2, #0	; 0x0
    e340:	1a000009 	bne	e36c <_ZL14secwork_threadPv+0x6c>
    e344:	e3a00003 	mov	r0, #3	; 0x3
    e348:	e59f30a4 	ldr	r3, [pc, #164]	; e3f4 <_ZL14secwork_threadPv+0xf4>
    e34c:	e08f3003 	add	r3, pc, r3
    e350:	e1a01003 	mov	r1, r3
    e354:	e59f309c 	ldr	r3, [pc, #156]	; e3f8 <_ZL14secwork_threadPv+0xf8>
    e358:	e08f3003 	add	r3, pc, r3
    e35c:	e1a02003 	mov	r2, r3
    e360:	ebffed07 	bl	9784 <__android_log_print@plt>
    e364:	e3a00000 	mov	r0, #0	; 0x0
    e368:	ebffed08 	bl	9790 <exit@plt>
    e36c:	e51b2008 	ldr	r2, [fp, #-8]
    e370:	e5922000 	ldr	r2, [r2]
    e374:	e3520002 	cmp	r2, #2	; 0x2
    e378:	0a000013 	beq	e3cc <_ZL14secwork_threadPv+0xcc>
    e37c:	e3520003 	cmp	r2, #3	; 0x3
    e380:	0a000014 	beq	e3d8 <_ZL14secwork_threadPv+0xd8>
    e384:	e3520001 	cmp	r2, #1	; 0x1
    e388:	1a000015 	bne	e3e4 <_ZL14secwork_threadPv+0xe4>
    e38c:	e59f2068 	ldr	r2, [pc, #104]	; e3fc <_ZL14secwork_threadPv+0xfc>
    e390:	e7932002 	ldr	r2, [r3, r2]
    e394:	e5922000 	ldr	r2, [r2]
    e398:	e3520000 	cmp	r2, #0	; 0x0
    e39c:	0a000007 	beq	e3c0 <_ZL14secwork_threadPv+0xc0>
    e3a0:	e59f2058 	ldr	r2, [pc, #88]	; e400 <_ZL14secwork_threadPv+0x100>
    e3a4:	e7933002 	ldr	r3, [r3, r2]
    e3a8:	e5933000 	ldr	r3, [r3]
    e3ac:	e3530000 	cmp	r3, #0	; 0x0
    e3b0:	0a000002 	beq	e3c0 <_ZL14secwork_threadPv+0xc0>
    e3b4:	e51b000c 	ldr	r0, [fp, #-12]
    e3b8:	eb00029b 	bl	ee2c <_ZN7secwork19handle_textrel_codeEv>
    e3bc:	ea000008 	b	e3e4 <_ZL14secwork_threadPv+0xe4>
    e3c0:	e51b000c 	ldr	r0, [fp, #-12]
    e3c4:	eb0001c7 	bl	eae8 <_ZN7secwork11handle_codeEv>
    e3c8:	ea000005 	b	e3e4 <_ZL14secwork_threadPv+0xe4>
    e3cc:	e51b000c 	ldr	r0, [fp, #-12]
    e3d0:	eb000378 	bl	f1b8 <_ZN7secwork10handle_eatEv>
    e3d4:	ea000002 	b	e3e4 <_ZL14secwork_threadPv+0xe4>
    e3d8:	e51b000c 	ldr	r0, [fp, #-12]
    e3dc:	eb0003ff 	bl	f3e0 <_ZN7secwork12handle_clearEv>
    e3e0:	e1a00000 	nop			(mov r0,r0)
    e3e4:	e1a00003 	mov	r0, r3
    e3e8:	e24bd004 	sub	sp, fp, #4	; 0x4
    e3ec:	e8bd8800 	pop	{fp, pc}
    e3f0:	0001cb94 	.word	0x0001cb94
    e3f4:	00018ce8 	.word	0x00018ce8
    e3f8:	00018d78 	.word	0x00018d78
    e3fc:	fffffe84 	.word	0xfffffe84
    e400:	fffffe88 	.word	0xfffffe88

0000e404 <_ZL11decryptcodePvjS_jPci>:
    e404:	e92d4800 	push	{fp, lr}
    e408:	e28db004 	add	fp, sp, #4	; 0x4
    e40c:	e24dd028 	sub	sp, sp, #40	; 0x28
    e410:	e50b0018 	str	r0, [fp, #-24]
    e414:	e50b101c 	str	r1, [fp, #-28]
    e418:	e50b2020 	str	r2, [fp, #-32]
    e41c:	e50b3024 	str	r3, [fp, #-36]
    e420:	e3a03000 	mov	r3, #0	; 0x0
    e424:	e50b300c 	str	r3, [fp, #-12]
    e428:	e3a00003 	mov	r0, #3	; 0x3
    e42c:	e59f3160 	ldr	r3, [pc, #352]	; e594 <_ZL11decryptcodePvjS_jPci+0x190>
    e430:	e08f3003 	add	r3, pc, r3
    e434:	e1a01003 	mov	r1, r3
    e438:	e59f3158 	ldr	r3, [pc, #344]	; e598 <_ZL11decryptcodePvjS_jPci+0x194>
    e43c:	e08f3003 	add	r3, pc, r3
    e440:	e1a02003 	mov	r2, r3
    e444:	ebffecce 	bl	9784 <__android_log_print@plt>
    e448:	e3a03000 	mov	r3, #0	; 0x0
    e44c:	e50b3008 	str	r3, [fp, #-8]
    e450:	e51b301c 	ldr	r3, [fp, #-28]
    e454:	e58d3000 	str	r3, [sp]
    e458:	e3a00003 	mov	r0, #3	; 0x3
    e45c:	e59f3138 	ldr	r3, [pc, #312]	; e59c <_ZL11decryptcodePvjS_jPci+0x198>
    e460:	e08f3003 	add	r3, pc, r3
    e464:	e1a01003 	mov	r1, r3
    e468:	e59f3130 	ldr	r3, [pc, #304]	; e5a0 <_ZL11decryptcodePvjS_jPci+0x19c>
    e46c:	e08f3003 	add	r3, pc, r3
    e470:	e1a02003 	mov	r2, r3
    e474:	e51b3018 	ldr	r3, [fp, #-24]
    e478:	ebffecc1 	bl	9784 <__android_log_print@plt>
    e47c:	e51b3024 	ldr	r3, [fp, #-36]
    e480:	e58d3000 	str	r3, [sp]
    e484:	e3a00003 	mov	r0, #3	; 0x3
    e488:	e59f3114 	ldr	r3, [pc, #276]	; e5a4 <_ZL11decryptcodePvjS_jPci+0x1a0>
    e48c:	e08f3003 	add	r3, pc, r3
    e490:	e1a01003 	mov	r1, r3
    e494:	e59f310c 	ldr	r3, [pc, #268]	; e5a8 <_ZL11decryptcodePvjS_jPci+0x1a4>
    e498:	e08f3003 	add	r3, pc, r3
    e49c:	e1a02003 	mov	r2, r3
    e4a0:	e51b3020 	ldr	r3, [fp, #-32]
    e4a4:	ebffecb6 	bl	9784 <__android_log_print@plt>
    e4a8:	e59b3008 	ldr	r3, [fp, #8]
    e4ac:	e58d3000 	str	r3, [sp]
    e4b0:	e3a00003 	mov	r0, #3	; 0x3
    e4b4:	e59f30f0 	ldr	r3, [pc, #240]	; e5ac <_ZL11decryptcodePvjS_jPci+0x1a8>
    e4b8:	e08f3003 	add	r3, pc, r3
    e4bc:	e1a01003 	mov	r1, r3
    e4c0:	e59f30e8 	ldr	r3, [pc, #232]	; e5b0 <_ZL11decryptcodePvjS_jPci+0x1ac>
    e4c4:	e08f3003 	add	r3, pc, r3
    e4c8:	e1a02003 	mov	r2, r3
    e4cc:	e59b3004 	ldr	r3, [fp, #4]
    e4d0:	ebffecab 	bl	9784 <__android_log_print@plt>
    e4d4:	e51b101c 	ldr	r1, [fp, #-28]
    e4d8:	e24b200c 	sub	r2, fp, #12	; 0xc
    e4dc:	e24b3010 	sub	r3, fp, #16	; 0x10
    e4e0:	e59b0004 	ldr	r0, [fp, #4]
    e4e4:	e58d0000 	str	r0, [sp]
    e4e8:	e59b0008 	ldr	r0, [fp, #8]
    e4ec:	e58d0004 	str	r0, [sp, #4]
    e4f0:	e51b0018 	ldr	r0, [fp, #-24]
    e4f4:	eb002ecd 	bl	1a030 <tdog_cipher_decrypt>
    e4f8:	e51bc010 	ldr	ip, [fp, #-16]
    e4fc:	e3a00003 	mov	r0, #3	; 0x3
    e500:	e59f30ac 	ldr	r3, [pc, #172]	; e5b4 <_ZL11decryptcodePvjS_jPci+0x1b0>
    e504:	e08f3003 	add	r3, pc, r3
    e508:	e1a01003 	mov	r1, r3
    e50c:	e59f30a4 	ldr	r3, [pc, #164]	; e5b8 <_ZL11decryptcodePvjS_jPci+0x1b4>
    e510:	e08f3003 	add	r3, pc, r3
    e514:	e1a02003 	mov	r2, r3
    e518:	e1a0300c 	mov	r3, ip
    e51c:	ebffec98 	bl	9784 <__android_log_print@plt>
    e520:	e51b3010 	ldr	r3, [fp, #-16]
    e524:	e1a02003 	mov	r2, r3
    e528:	e51b3024 	ldr	r3, [fp, #-36]
    e52c:	e1520003 	cmp	r2, r3
    e530:	1a000007 	bne	e554 <_ZL11decryptcodePvjS_jPci+0x150>
    e534:	e51b200c 	ldr	r2, [fp, #-12]
    e538:	e51b3010 	ldr	r3, [fp, #-16]
    e53c:	e51b1020 	ldr	r1, [fp, #-32]
    e540:	e1a00001 	mov	r0, r1
    e544:	e1a01002 	mov	r1, r2
    e548:	e1a02003 	mov	r2, r3
    e54c:	ebffec83 	bl	9760 <memcpy@plt>
    e550:	ea00000a 	b	e580 <_ZL11decryptcodePvjS_jPci+0x17c>
    e554:	e51b3010 	ldr	r3, [fp, #-16]
    e558:	e58d3000 	str	r3, [sp]
    e55c:	e3a00003 	mov	r0, #3	; 0x3
    e560:	e59f3054 	ldr	r3, [pc, #84]	; e5bc <_ZL11decryptcodePvjS_jPci+0x1b8>
    e564:	e08f3003 	add	r3, pc, r3
    e568:	e1a01003 	mov	r1, r3
    e56c:	e59f304c 	ldr	r3, [pc, #76]	; e5c0 <_ZL11decryptcodePvjS_jPci+0x1bc>
    e570:	e08f3003 	add	r3, pc, r3
    e574:	e1a02003 	mov	r2, r3
    e578:	e51b3024 	ldr	r3, [fp, #-36]
    e57c:	ebffec80 	bl	9784 <__android_log_print@plt>
    e580:	e51b300c 	ldr	r3, [fp, #-12]
    e584:	e1a00003 	mov	r0, r3
    e588:	ebffec7a 	bl	9778 <free@plt>
    e58c:	e24bd004 	sub	sp, fp, #4	; 0x4
    e590:	e8bd8800 	pop	{fp, pc}
    e594:	00018c04 	.word	0x00018c04
    e598:	00018cc0 	.word	0x00018cc0
    e59c:	00018bd4 	.word	0x00018bd4
    e5a0:	00018ca8 	.word	0x00018ca8
    e5a4:	00018ba8 	.word	0x00018ba8
    e5a8:	00018ca4 	.word	0x00018ca4
    e5ac:	00018b7c 	.word	0x00018b7c
    e5b0:	00018ca0 	.word	0x00018ca0
    e5b4:	00018b30 	.word	0x00018b30
    e5b8:	00018c78 	.word	0x00018c78
    e5bc:	00018ad0 	.word	0x00018ad0
    e5c0:	00018c3c 	.word	0x00018c3c

0000e5c4 <_ZN7secworkC1Ev>:
    e5c4:	e92d4800 	push	{fp, lr}
    e5c8:	e28db004 	add	fp, sp, #4	; 0x4
    e5cc:	e24dd008 	sub	sp, sp, #8	; 0x8
    e5d0:	e50b0008 	str	r0, [fp, #-8]
    e5d4:	e59f3084 	ldr	r3, [pc, #132]	; e660 <_ZN7secworkC1Ev+0x9c>
    e5d8:	e08f3003 	add	r3, pc, r3
    e5dc:	e59f2080 	ldr	r2, [pc, #128]	; e664 <_ZN7secworkC1Ev+0xa0>
    e5e0:	e7933002 	ldr	r3, [r3, r2]
    e5e4:	e5932000 	ldr	r2, [r3]
    e5e8:	e51b3008 	ldr	r3, [fp, #-8]
    e5ec:	e5832004 	str	r2, [r3, #4]
    e5f0:	e59f3070 	ldr	r3, [pc, #112]	; e668 <_ZN7secworkC1Ev+0xa4>
    e5f4:	e08f3003 	add	r3, pc, r3
    e5f8:	e1a00003 	mov	r0, r3
    e5fc:	ebffec93 	bl	9850 <setjmp@plt>
    e600:	e1a03000 	mov	r3, r0
    e604:	e3530000 	cmp	r3, #0	; 0x0
    e608:	03a03000 	moveq	r3, #0	; 0x0
    e60c:	13a03001 	movne	r3, #1	; 0x1
    e610:	e20330ff 	and	r3, r3, #255	; 0xff
    e614:	e3530000 	cmp	r3, #0	; 0x0
    e618:	0a000001 	beq	e624 <_ZN7secworkC1Ev+0x60>
    e61c:	eb002d56 	bl	19b7c <_Z8dispatchv>
    e620:	ea00000a 	b	e650 <_ZN7secworkC1Ev+0x8c>
    e624:	e51b3008 	ldr	r3, [fp, #-8]
    e628:	e5932004 	ldr	r2, [r3, #4]
    e62c:	e59f3038 	ldr	r3, [pc, #56]	; e66c <_ZN7secworkC1Ev+0xa8>
    e630:	e08f3003 	add	r3, pc, r3
    e634:	e1a00003 	mov	r0, r3
    e638:	e1a01002 	mov	r1, r2
    e63c:	ebfff212 	bl	ae8c <_Z10pool_startPFPvS_Ej>
    e640:	e1a03000 	mov	r3, r0
    e644:	e1a02003 	mov	r2, r3
    e648:	e51b3008 	ldr	r3, [fp, #-8]
    e64c:	e5832000 	str	r2, [r3]
    e650:	e51b3008 	ldr	r3, [fp, #-8]
    e654:	e1a00003 	mov	r0, r3
    e658:	e24bd004 	sub	sp, fp, #4	; 0x4
    e65c:	e8bd8800 	pop	{fp, pc}
    e660:	0001c8d0 	.word	0x0001c8d0
    e664:	fffffe8c 	.word	0xfffffe8c
    e668:	0001d230 	.word	0x0001d230
    e66c:	fffffcc8 	.word	0xfffffcc8

0000e670 <_ZN7secworkD1Ev>:
    e670:	e52db004 	push	{fp}		; (str fp, [sp, #-4]!)
    e674:	e28db000 	add	fp, sp, #0	; 0x0
    e678:	e24dd00c 	sub	sp, sp, #12	; 0xc
    e67c:	e50b0008 	str	r0, [fp, #-8]
    e680:	e51b3008 	ldr	r3, [fp, #-8]
    e684:	e1a00003 	mov	r0, r3
    e688:	e28bd000 	add	sp, fp, #0	; 0x0
    e68c:	e8bd0800 	pop	{fp}
    e690:	e12fff1e 	bx	lr

0000e694 <_Z48ilsecfunc_start_6e0c61d7b568f540236b2bdc47d5817av>:
    e694:	e52db004 	push	{fp}		; (str fp, [sp, #-4]!)
    e698:	e28db000 	add	fp, sp, #0	; 0x0
    e69c:	e28bd000 	add	sp, fp, #0	; 0x0
    e6a0:	e8bd0800 	pop	{fp}
    e6a4:	e12fff1e 	bx	lr

0000e6a8 <_ZN7secwork6doworkEPv>:
    e6a8:	e92d4810 	push	{r4, fp, lr}
    e6ac:	e28db008 	add	fp, sp, #8	; 0x8
    e6b0:	e24dd024 	sub	sp, sp, #36	; 0x24
    e6b4:	e50b0028 	str	r0, [fp, #-40]
    e6b8:	e50b102c 	str	r1, [fp, #-44]
    e6bc:	e59f4334 	ldr	r4, [pc, #820]	; e9f8 <_ZN7secwork6doworkEPv+0x350>
    e6c0:	e08f4004 	add	r4, pc, r4
    e6c4:	e3a03000 	mov	r3, #0	; 0x0
    e6c8:	e50b3014 	str	r3, [fp, #-20]
    e6cc:	e3a03000 	mov	r3, #0	; 0x0
    e6d0:	e50b3018 	str	r3, [fp, #-24]
    e6d4:	e3a03000 	mov	r3, #0	; 0x0
    e6d8:	e50b301c 	str	r3, [fp, #-28]
    e6dc:	e3a00003 	mov	r0, #3	; 0x3
    e6e0:	e59f3314 	ldr	r3, [pc, #788]	; e9fc <_ZN7secwork6doworkEPv+0x354>
    e6e4:	e08f3003 	add	r3, pc, r3
    e6e8:	e1a01003 	mov	r1, r3
    e6ec:	e59f330c 	ldr	r3, [pc, #780]	; ea00 <_ZN7secwork6doworkEPv+0x358>
    e6f0:	e08f3003 	add	r3, pc, r3
    e6f4:	e1a02003 	mov	r2, r3
    e6f8:	ebffec21 	bl	9784 <__android_log_print@plt>
    e6fc:	e51b302c 	ldr	r3, [fp, #-44]
    e700:	e50b3020 	str	r3, [fp, #-32]
    e704:	e3a03000 	mov	r3, #0	; 0x0
    e708:	e50b3010 	str	r3, [fp, #-16]
    e70c:	ea00002d 	b	e7c8 <_ZN7secwork6doworkEPv+0x120>
    e710:	e51b3020 	ldr	r3, [fp, #-32]
    e714:	e51b2010 	ldr	r2, [fp, #-16]
    e718:	e2822008 	add	r2, r2, #8	; 0x8
    e71c:	e7933102 	ldr	r3, [r3, r2, lsl #2]
    e720:	e1a00003 	mov	r0, r3
    e724:	e3a01000 	mov	r1, #0	; 0x0
    e728:	ebffec5d 	bl	98a4 <pthread_kill@plt>
    e72c:	e1a03000 	mov	r3, r0
    e730:	e50b3014 	str	r3, [fp, #-20]
    e734:	e51b3014 	ldr	r3, [fp, #-20]
    e738:	e3530003 	cmp	r3, #3	; 0x3
    e73c:	1a000009 	bne	e768 <_ZN7secwork6doworkEPv+0xc0>
    e740:	e3a00003 	mov	r0, #3	; 0x3
    e744:	e59f32b8 	ldr	r3, [pc, #696]	; ea04 <_ZN7secwork6doworkEPv+0x35c>
    e748:	e08f3003 	add	r3, pc, r3
    e74c:	e1a01003 	mov	r1, r3
    e750:	e59f32b0 	ldr	r3, [pc, #688]	; ea08 <_ZN7secwork6doworkEPv+0x360>
    e754:	e08f3003 	add	r3, pc, r3
    e758:	e1a02003 	mov	r2, r3
    e75c:	ebffec08 	bl	9784 <__android_log_print@plt>
    e760:	e3a00000 	mov	r0, #0	; 0x0
    e764:	ebffec09 	bl	9790 <exit@plt>
    e768:	e51b3014 	ldr	r3, [fp, #-20]
    e76c:	e3530016 	cmp	r3, #22	; 0x16
    e770:	1a000009 	bne	e79c <_ZN7secwork6doworkEPv+0xf4>
    e774:	e3a00003 	mov	r0, #3	; 0x3
    e778:	e59f328c 	ldr	r3, [pc, #652]	; ea0c <_ZN7secwork6doworkEPv+0x364>
    e77c:	e08f3003 	add	r3, pc, r3
    e780:	e1a01003 	mov	r1, r3
    e784:	e59f3284 	ldr	r3, [pc, #644]	; ea10 <_ZN7secwork6doworkEPv+0x368>
    e788:	e08f3003 	add	r3, pc, r3
    e78c:	e1a02003 	mov	r2, r3
    e790:	ebffebfb 	bl	9784 <__android_log_print@plt>
    e794:	e3a00000 	mov	r0, #0	; 0x0
    e798:	ebffebfc 	bl	9790 <exit@plt>
    e79c:	e3a00003 	mov	r0, #3	; 0x3
    e7a0:	e59f326c 	ldr	r3, [pc, #620]	; ea14 <_ZN7secwork6doworkEPv+0x36c>
    e7a4:	e08f3003 	add	r3, pc, r3
    e7a8:	e1a01003 	mov	r1, r3
    e7ac:	e59f3264 	ldr	r3, [pc, #612]	; ea18 <_ZN7secwork6doworkEPv+0x370>
    e7b0:	e08f3003 	add	r3, pc, r3
    e7b4:	e1a02003 	mov	r2, r3
    e7b8:	ebffebf1 	bl	9784 <__android_log_print@plt>
    e7bc:	e51b3010 	ldr	r3, [fp, #-16]
    e7c0:	e2833001 	add	r3, r3, #1	; 0x1
    e7c4:	e50b3010 	str	r3, [fp, #-16]
    e7c8:	e51b2010 	ldr	r2, [fp, #-16]
    e7cc:	e51b3020 	ldr	r3, [fp, #-32]
    e7d0:	e593300c 	ldr	r3, [r3, #12]
    e7d4:	e1520003 	cmp	r2, r3
    e7d8:	23a03000 	movcs	r3, #0	; 0x0
    e7dc:	33a03001 	movcc	r3, #1	; 0x1
    e7e0:	e20330ff 	and	r3, r3, #255	; 0xff
    e7e4:	e3530000 	cmp	r3, #0	; 0x0
    e7e8:	1affffc8 	bne	e710 <_ZN7secwork6doworkEPv+0x68>
    e7ec:	e59f3228 	ldr	r3, [pc, #552]	; ea1c <_ZN7secwork6doworkEPv+0x374>
    e7f0:	e7943003 	ldr	r3, [r4, r3]
    e7f4:	e5933000 	ldr	r3, [r3]
    e7f8:	e3530000 	cmp	r3, #0	; 0x0
    e7fc:	0a00001f 	beq	e880 <_ZN7secwork6doworkEPv+0x1d8>
    e800:	e3a00003 	mov	r0, #3	; 0x3
    e804:	e59f3214 	ldr	r3, [pc, #532]	; ea20 <_ZN7secwork6doworkEPv+0x378>
    e808:	e08f3003 	add	r3, pc, r3
    e80c:	e1a01003 	mov	r1, r3
    e810:	e59f320c 	ldr	r3, [pc, #524]	; ea24 <_ZN7secwork6doworkEPv+0x37c>
    e814:	e08f3003 	add	r3, pc, r3
    e818:	e1a02003 	mov	r2, r3
    e81c:	ebffebd8 	bl	9784 <__android_log_print@plt>
    e820:	e3a0300c 	mov	r3, #12	; 0xc
    e824:	e50b3018 	str	r3, [fp, #-24]
    e828:	e51b3018 	ldr	r3, [fp, #-24]
    e82c:	e1a00003 	mov	r0, r3
    e830:	ebffebc4 	bl	9748 <malloc@plt>
    e834:	e1a03000 	mov	r3, r0
    e838:	e50b301c 	str	r3, [fp, #-28]
    e83c:	e51b3018 	ldr	r3, [fp, #-24]
    e840:	e51b001c 	ldr	r0, [fp, #-28]
    e844:	e3a01000 	mov	r1, #0	; 0x0
    e848:	e1a02003 	mov	r2, r3
    e84c:	ebffebc0 	bl	9754 <memset@plt>
    e850:	e51b301c 	ldr	r3, [fp, #-28]
    e854:	e3a02001 	mov	r2, #1	; 0x1
    e858:	e5832000 	str	r2, [r3]
    e85c:	e51b301c 	ldr	r3, [fp, #-28]
    e860:	e51b2028 	ldr	r2, [fp, #-40]
    e864:	e5832004 	str	r2, [r3, #4]
    e868:	e51b3028 	ldr	r3, [fp, #-40]
    e86c:	e5933000 	ldr	r3, [r3]
    e870:	e1a00003 	mov	r0, r3
    e874:	e51b101c 	ldr	r1, [fp, #-28]
    e878:	e3a02001 	mov	r2, #1	; 0x1
    e87c:	ebfff1c9 	bl	afa8 <_Z12pool_enqueuePvS_c>
    e880:	e59f31a0 	ldr	r3, [pc, #416]	; ea28 <_ZN7secwork6doworkEPv+0x380>
    e884:	e7943003 	ldr	r3, [r4, r3]
    e888:	e5933000 	ldr	r3, [r3]
    e88c:	e3530000 	cmp	r3, #0	; 0x0
    e890:	0a00001f 	beq	e914 <_ZN7secwork6doworkEPv+0x26c>
    e894:	e3a00003 	mov	r0, #3	; 0x3
    e898:	e59f318c 	ldr	r3, [pc, #396]	; ea2c <_ZN7secwork6doworkEPv+0x384>
    e89c:	e08f3003 	add	r3, pc, r3
    e8a0:	e1a01003 	mov	r1, r3
    e8a4:	e59f3184 	ldr	r3, [pc, #388]	; ea30 <_ZN7secwork6doworkEPv+0x388>
    e8a8:	e08f3003 	add	r3, pc, r3
    e8ac:	e1a02003 	mov	r2, r3
    e8b0:	ebffebb3 	bl	9784 <__android_log_print@plt>
    e8b4:	e3a0300c 	mov	r3, #12	; 0xc
    e8b8:	e50b3018 	str	r3, [fp, #-24]
    e8bc:	e51b3018 	ldr	r3, [fp, #-24]
    e8c0:	e1a00003 	mov	r0, r3
    e8c4:	ebffeb9f 	bl	9748 <malloc@plt>
    e8c8:	e1a03000 	mov	r3, r0
    e8cc:	e50b301c 	str	r3, [fp, #-28]
    e8d0:	e51b3018 	ldr	r3, [fp, #-24]
    e8d4:	e51b001c 	ldr	r0, [fp, #-28]
    e8d8:	e3a01000 	mov	r1, #0	; 0x0
    e8dc:	e1a02003 	mov	r2, r3
    e8e0:	ebffeb9b 	bl	9754 <memset@plt>
    e8e4:	e51b301c 	ldr	r3, [fp, #-28]
    e8e8:	e3a02002 	mov	r2, #2	; 0x2
    e8ec:	e5832000 	str	r2, [r3]
    e8f0:	e51b301c 	ldr	r3, [fp, #-28]
    e8f4:	e51b2028 	ldr	r2, [fp, #-40]
    e8f8:	e5832004 	str	r2, [r3, #4]
    e8fc:	e51b3028 	ldr	r3, [fp, #-40]
    e900:	e5933000 	ldr	r3, [r3]
    e904:	e1a00003 	mov	r0, r3
    e908:	e51b101c 	ldr	r1, [fp, #-28]
    e90c:	e3a02001 	mov	r2, #1	; 0x1
    e910:	ebfff1a4 	bl	afa8 <_Z12pool_enqueuePvS_c>
    e914:	e59f3118 	ldr	r3, [pc, #280]	; ea34 <_ZN7secwork6doworkEPv+0x38c>
    e918:	e7943003 	ldr	r3, [r4, r3]
    e91c:	e5933000 	ldr	r3, [r3]
    e920:	e3530000 	cmp	r3, #0	; 0x0
    e924:	0a00001f 	beq	e9a8 <_ZN7secwork6doworkEPv+0x300>
    e928:	e3a00003 	mov	r0, #3	; 0x3
    e92c:	e59f3104 	ldr	r3, [pc, #260]	; ea38 <_ZN7secwork6doworkEPv+0x390>
    e930:	e08f3003 	add	r3, pc, r3
    e934:	e1a01003 	mov	r1, r3
    e938:	e59f30fc 	ldr	r3, [pc, #252]	; ea3c <_ZN7secwork6doworkEPv+0x394>
    e93c:	e08f3003 	add	r3, pc, r3
    e940:	e1a02003 	mov	r2, r3
    e944:	ebffeb8e 	bl	9784 <__android_log_print@plt>
    e948:	e3a0300c 	mov	r3, #12	; 0xc
    e94c:	e50b3018 	str	r3, [fp, #-24]
    e950:	e51b3018 	ldr	r3, [fp, #-24]
    e954:	e1a00003 	mov	r0, r3
    e958:	ebffeb7a 	bl	9748 <malloc@plt>
    e95c:	e1a03000 	mov	r3, r0
    e960:	e50b301c 	str	r3, [fp, #-28]
    e964:	e51b3018 	ldr	r3, [fp, #-24]
    e968:	e51b001c 	ldr	r0, [fp, #-28]
    e96c:	e3a01000 	mov	r1, #0	; 0x0
    e970:	e1a02003 	mov	r2, r3
    e974:	ebffeb76 	bl	9754 <memset@plt>
    e978:	e51b301c 	ldr	r3, [fp, #-28]
    e97c:	e3a02003 	mov	r2, #3	; 0x3
    e980:	e5832000 	str	r2, [r3]
    e984:	e51b301c 	ldr	r3, [fp, #-28]
    e988:	e51b2028 	ldr	r2, [fp, #-40]
    e98c:	e5832004 	str	r2, [r3, #4]
    e990:	e51b3028 	ldr	r3, [fp, #-40]
    e994:	e5933000 	ldr	r3, [r3]
    e998:	e1a00003 	mov	r0, r3
    e99c:	e51b101c 	ldr	r1, [fp, #-28]
    e9a0:	e3a02001 	mov	r2, #1	; 0x1
    e9a4:	ebfff17f 	bl	afa8 <_Z12pool_enqueuePvS_c>
    e9a8:	e51b3028 	ldr	r3, [fp, #-40]
    e9ac:	e5933000 	ldr	r3, [r3]
    e9b0:	e1a00003 	mov	r0, r3
    e9b4:	ebfff1b6 	bl	b094 <_Z9pool_waitPv>
    e9b8:	e51b3028 	ldr	r3, [fp, #-40]
    e9bc:	e5933000 	ldr	r3, [r3]
    e9c0:	e1a00003 	mov	r0, r3
    e9c4:	ebfff1d7 	bl	b128 <_Z8pool_endPv>
    e9c8:	e3a00001 	mov	r0, #1	; 0x1
    e9cc:	eb00001d 	bl	ea48 <_Z46ilsecfunc_end_6e0c61d7b568f540236b2bdc47d5817aj>
    e9d0:	e3a00003 	mov	r0, #3	; 0x3
    e9d4:	e59f3064 	ldr	r3, [pc, #100]	; ea40 <_ZN7secwork6doworkEPv+0x398>
    e9d8:	e08f3003 	add	r3, pc, r3
    e9dc:	e1a01003 	mov	r1, r3
    e9e0:	e59f305c 	ldr	r3, [pc, #92]	; ea44 <_ZN7secwork6doworkEPv+0x39c>
    e9e4:	e08f3003 	add	r3, pc, r3
    e9e8:	e1a02003 	mov	r2, r3
    e9ec:	ebffeb64 	bl	9784 <__android_log_print@plt>
    e9f0:	e24bd008 	sub	sp, fp, #8	; 0x8
    e9f4:	e8bd8810 	pop	{r4, fp, pc}
    e9f8:	0001c7e8 	.word	0x0001c7e8
    e9fc:	00018950 	.word	0x00018950
    ea00:	00018afc 	.word	0x00018afc
    ea04:	000188ec 	.word	0x000188ec
    ea08:	00018aac 	.word	0x00018aac
    ea0c:	000188b8 	.word	0x000188b8
    ea10:	00018a78 	.word	0x00018a78
    ea14:	00018890 	.word	0x00018890
    ea18:	00018a70 	.word	0x00018a70
    ea1c:	fffffe90 	.word	0xfffffe90
    ea20:	0001882c 	.word	0x0001882c
    ea24:	00018a1c 	.word	0x00018a1c
    ea28:	fffffe94 	.word	0xfffffe94
    ea2c:	00018798 	.word	0x00018798
    ea30:	000189ac 	.word	0x000189ac
    ea34:	fffffe98 	.word	0xfffffe98
    ea38:	00018704 	.word	0x00018704
    ea3c:	0001893c 	.word	0x0001893c
    ea40:	0001865c 	.word	0x0001865c
    ea44:	000188b8 	.word	0x000188b8

0000ea48 <_Z46ilsecfunc_end_6e0c61d7b568f540236b2bdc47d5817aj>:
    ea48:	e92d4800 	push	{fp, lr}
    ea4c:	e28db004 	add	fp, sp, #4	; 0x4
    ea50:	e24dd010 	sub	sp, sp, #16	; 0x10
    ea54:	e50b0010 	str	r0, [fp, #-16]
    ea58:	e59f303c 	ldr	r3, [pc, #60]	; ea9c <_Z46ilsecfunc_end_6e0c61d7b568f540236b2bdc47d5817aj+0x54>
    ea5c:	e08f3003 	add	r3, pc, r3
    ea60:	e59f2038 	ldr	r2, [pc, #56]	; eaa0 <_Z46ilsecfunc_end_6e0c61d7b568f540236b2bdc47d5817aj+0x58>
    ea64:	e7932002 	ldr	r2, [r3, r2]
    ea68:	e50b2008 	str	r2, [fp, #-8]
    ea6c:	e59f2030 	ldr	r2, [pc, #48]	; eaa4 <_Z46ilsecfunc_end_6e0c61d7b568f540236b2bdc47d5817aj+0x5c>
    ea70:	e7932002 	ldr	r2, [r3, r2]
    ea74:	e50b200c 	str	r2, [fp, #-12]
    ea78:	e59f2028 	ldr	r2, [pc, #40]	; eaa8 <_Z46ilsecfunc_end_6e0c61d7b568f540236b2bdc47d5817aj+0x60>
    ea7c:	e7933002 	ldr	r3, [r3, r2]
    ea80:	e5933000 	ldr	r3, [r3]
    ea84:	e51b0010 	ldr	r0, [fp, #-16]
    ea88:	e51b1008 	ldr	r1, [fp, #-8]
    ea8c:	e51b200c 	ldr	r2, [fp, #-12]
    ea90:	e12fff33 	blx	r3
    ea94:	e24bd004 	sub	sp, fp, #4	; 0x4
    ea98:	e8bd8800 	pop	{fp, pc}
    ea9c:	0001c44c 	.word	0x0001c44c
    eaa0:	fffffe38 	.word	0xfffffe38
    eaa4:	fffffe3c 	.word	0xfffffe3c
    eaa8:	fffffe20 	.word	0xfffffe20

0000eaac <_ZN7secwork15get_thread_poolEv>:
    eaac:	e52db004 	push	{fp}		; (str fp, [sp, #-4]!)
    eab0:	e28db000 	add	fp, sp, #0	; 0x0
    eab4:	e24dd00c 	sub	sp, sp, #12	; 0xc
    eab8:	e50b0008 	str	r0, [fp, #-8]
    eabc:	e51b3008 	ldr	r3, [fp, #-8]
    eac0:	e5933000 	ldr	r3, [r3]
    eac4:	e1a00003 	mov	r0, r3
    eac8:	e28bd000 	add	sp, fp, #0	; 0x0
    eacc:	e8bd0800 	pop	{fp}
    ead0:	e12fff1e 	bx	lr

0000ead4 <_Z48ilsecfunc_start_b9724cb5a79a2226baa1123b8a3825ddv>:
    ead4:	e52db004 	push	{fp}		; (str fp, [sp, #-4]!)
    ead8:	e28db000 	add	fp, sp, #0	; 0x0
    eadc:	e28bd000 	add	sp, fp, #0	; 0x0
    eae0:	e8bd0800 	pop	{fp}
    eae4:	e12fff1e 	bx	lr

0000eae8 <_ZN7secwork11handle_codeEv>:
    eae8:	e92d4800 	push	{fp, lr}
    eaec:	e28db004 	add	fp, sp, #4	; 0x4
    eaf0:	e24dd020 	sub	sp, sp, #32	; 0x20
    eaf4:	e50b0018 	str	r0, [fp, #-24]
    eaf8:	e59f0280 	ldr	r0, [pc, #640]	; ed80 <_ZN7secwork11handle_codeEv+0x298>
    eafc:	e50b001c 	str	r0, [fp, #-28]
    eb00:	e51b101c 	ldr	r1, [fp, #-28]
    eb04:	e08f1001 	add	r1, pc, r1
    eb08:	e50b101c 	str	r1, [fp, #-28]
    eb0c:	e3a03000 	mov	r3, #0	; 0x0
    eb10:	e50b3008 	str	r3, [fp, #-8]
    eb14:	e3a03000 	mov	r3, #0	; 0x0
    eb18:	e50b300c 	str	r3, [fp, #-12]
    eb1c:	e3a03000 	mov	r3, #0	; 0x0
    eb20:	e50b3010 	str	r3, [fp, #-16]
    eb24:	e3a00003 	mov	r0, #3	; 0x3
    eb28:	e59f3254 	ldr	r3, [pc, #596]	; ed84 <_ZN7secwork11handle_codeEv+0x29c>
    eb2c:	e08f3003 	add	r3, pc, r3
    eb30:	e1a01003 	mov	r1, r3
    eb34:	e59f324c 	ldr	r3, [pc, #588]	; ed88 <_ZN7secwork11handle_codeEv+0x2a0>
    eb38:	e08f3003 	add	r3, pc, r3
    eb3c:	e1a02003 	mov	r2, r3
    eb40:	ebffeb0f 	bl	9784 <__android_log_print@plt>
    eb44:	e59f3240 	ldr	r3, [pc, #576]	; ed8c <_ZN7secwork11handle_codeEv+0x2a4>
    eb48:	e51b201c 	ldr	r2, [fp, #-28]
    eb4c:	e7923003 	ldr	r3, [r2, r3]
    eb50:	e5932000 	ldr	r2, [r3]
    eb54:	e59f3234 	ldr	r3, [pc, #564]	; ed90 <_ZN7secwork11handle_codeEv+0x2a8>
    eb58:	e51b001c 	ldr	r0, [fp, #-28]
    eb5c:	e7903003 	ldr	r3, [r0, r3]
    eb60:	e5933000 	ldr	r3, [r3]
    eb64:	e0823003 	add	r3, r2, r3
    eb68:	e50b3010 	str	r3, [fp, #-16]
    eb6c:	e59f3218 	ldr	r3, [pc, #536]	; ed8c <_ZN7secwork11handle_codeEv+0x2a4>
    eb70:	e51b101c 	ldr	r1, [fp, #-28]
    eb74:	e7913003 	ldr	r3, [r1, r3]
    eb78:	e5932000 	ldr	r2, [r3]
    eb7c:	e59f3210 	ldr	r3, [pc, #528]	; ed94 <_ZN7secwork11handle_codeEv+0x2ac>
    eb80:	e51b001c 	ldr	r0, [fp, #-28]
    eb84:	e7903003 	ldr	r3, [r0, r3]
    eb88:	e5933000 	ldr	r3, [r3]
    eb8c:	e0823003 	add	r3, r2, r3
    eb90:	e50b300c 	str	r3, [fp, #-12]
    eb94:	e51b300c 	ldr	r3, [fp, #-12]
    eb98:	e3530000 	cmp	r3, #0	; 0x0
    eb9c:	0a000002 	beq	ebac <_ZN7secwork11handle_codeEv+0xc4>
    eba0:	e51b3010 	ldr	r3, [fp, #-16]
    eba4:	e3530000 	cmp	r3, #0	; 0x0
    eba8:	1a000003 	bne	ebbc <_ZN7secwork11handle_codeEv+0xd4>
    ebac:	e3e03000 	mvn	r3, #0	; 0x0
    ebb0:	e50b3008 	str	r3, [fp, #-8]
    ebb4:	e51b3008 	ldr	r3, [fp, #-8]
    ebb8:	ea00006d 	b	ed74 <_ZN7secwork11handle_codeEv+0x28c>
    ebbc:	e59f31d4 	ldr	r3, [pc, #468]	; ed98 <_ZN7secwork11handle_codeEv+0x2b0>
    ebc0:	e08f3003 	add	r3, pc, r3
    ebc4:	e1a00003 	mov	r0, r3
    ebc8:	ebffeb20 	bl	9850 <setjmp@plt>
    ebcc:	e1a03000 	mov	r3, r0
    ebd0:	e3530000 	cmp	r3, #0	; 0x0
    ebd4:	03a03000 	moveq	r3, #0	; 0x0
    ebd8:	13a03001 	movne	r3, #1	; 0x1
    ebdc:	e20330ff 	and	r3, r3, #255	; 0xff
    ebe0:	e3530000 	cmp	r3, #0	; 0x0
    ebe4:	0a000001 	beq	ebf0 <_ZN7secwork11handle_codeEv+0x108>
    ebe8:	eb002be3 	bl	19b7c <_Z8dispatchv>
    ebec:	ea00001a 	b	ec5c <_ZN7secwork11handle_codeEv+0x174>
    ebf0:	e59f31a4 	ldr	r3, [pc, #420]	; ed9c <_ZN7secwork11handle_codeEv+0x2b4>
    ebf4:	e51b101c 	ldr	r1, [fp, #-28]
    ebf8:	e7913003 	ldr	r3, [r1, r3]
    ebfc:	e5931000 	ldr	r1, [r3]
    ec00:	e59f3184 	ldr	r3, [pc, #388]	; ed8c <_ZN7secwork11handle_codeEv+0x2a4>
    ec04:	e51b201c 	ldr	r2, [fp, #-28]
    ec08:	e7923003 	ldr	r3, [r2, r3]
    ec0c:	e5932000 	ldr	r2, [r3]
    ec10:	e59f3188 	ldr	r3, [pc, #392]	; eda0 <_ZN7secwork11handle_codeEv+0x2b8>
    ec14:	e51be01c 	ldr	lr, [fp, #-28]
    ec18:	e79e3003 	ldr	r3, [lr, r3]
    ec1c:	e5933000 	ldr	r3, [r3]
    ec20:	e0823003 	add	r3, r2, r3
    ec24:	e1a02003 	mov	r2, r3
    ec28:	e59f3174 	ldr	r3, [pc, #372]	; eda4 <_ZN7secwork11handle_codeEv+0x2bc>
    ec2c:	e51b001c 	ldr	r0, [fp, #-28]
    ec30:	e7903003 	ldr	r3, [r0, r3]
    ec34:	e5933000 	ldr	r3, [r3]
    ec38:	e51bc00c 	ldr	ip, [fp, #-12]
    ec3c:	e59f0164 	ldr	r0, [pc, #356]	; eda8 <_ZN7secwork11handle_codeEv+0x2c0>
    ec40:	e51be01c 	ldr	lr, [fp, #-28]
    ec44:	e79e0000 	ldr	r0, [lr, r0]
    ec48:	e5900000 	ldr	r0, [r0]
    ec4c:	e58dc000 	str	ip, [sp]
    ec50:	e58d0004 	str	r0, [sp, #4]
    ec54:	e51b0010 	ldr	r0, [fp, #-16]
    ec58:	ebfffde9 	bl	e404 <_ZL11decryptcodePvjS_jPci>
    ec5c:	e59f3148 	ldr	r3, [pc, #328]	; edac <_ZN7secwork11handle_codeEv+0x2c4>
    ec60:	e51b001c 	ldr	r0, [fp, #-28]
    ec64:	e7903003 	ldr	r3, [r0, r3]
    ec68:	e3a02000 	mov	r2, #0	; 0x0
    ec6c:	e5832000 	str	r2, [r3]
    ec70:	e59f3134 	ldr	r3, [pc, #308]	; edac <_ZN7secwork11handle_codeEv+0x2c4>
    ec74:	e51b101c 	ldr	r1, [fp, #-28]
    ec78:	e7913003 	ldr	r3, [r1, r3]
    ec7c:	e5933000 	ldr	r3, [r3]
    ec80:	e3530000 	cmp	r3, #0	; 0x0
    ec84:	0a000026 	beq	ed24 <_ZN7secwork11handle_codeEv+0x23c>
    ec88:	e59f3120 	ldr	r3, [pc, #288]	; edb0 <_ZN7secwork11handle_codeEv+0x2c8>
    ec8c:	e51b201c 	ldr	r2, [fp, #-28]
    ec90:	e7923003 	ldr	r3, [r2, r3]
    ec94:	e5933000 	ldr	r3, [r3]
    ec98:	e3530000 	cmp	r3, #0	; 0x0
    ec9c:	1a000020 	bne	ed24 <_ZN7secwork11handle_codeEv+0x23c>
    eca0:	e59f310c 	ldr	r3, [pc, #268]	; edb4 <_ZN7secwork11handle_codeEv+0x2cc>
    eca4:	e51be01c 	ldr	lr, [fp, #-28]
    eca8:	e79e3003 	ldr	r3, [lr, r3]
    ecac:	e5933000 	ldr	r3, [r3]
    ecb0:	e59f20e4 	ldr	r2, [pc, #228]	; ed9c <_ZN7secwork11handle_codeEv+0x2b4>
    ecb4:	e51b001c 	ldr	r0, [fp, #-28]
    ecb8:	e7902002 	ldr	r2, [r0, r2]
    ecbc:	e5922000 	ldr	r2, [r2]
    ecc0:	e51b0010 	ldr	r0, [fp, #-16]
    ecc4:	e1a01002 	mov	r1, r2
    ecc8:	e12fff33 	blx	r3
    eccc:	e1a03000 	mov	r3, r0
    ecd0:	e1a02003 	mov	r2, r3
    ecd4:	e59f30d0 	ldr	r3, [pc, #208]	; edac <_ZN7secwork11handle_codeEv+0x2c4>
    ecd8:	e51b101c 	ldr	r1, [fp, #-28]
    ecdc:	e7913003 	ldr	r3, [r1, r3]
    ece0:	e5933000 	ldr	r3, [r3]
    ece4:	e1520003 	cmp	r2, r3
    ece8:	03a03000 	moveq	r3, #0	; 0x0
    ecec:	13a03001 	movne	r3, #1	; 0x1
    ecf0:	e20330ff 	and	r3, r3, #255	; 0xff
    ecf4:	e3530000 	cmp	r3, #0	; 0x0
    ecf8:	0a000009 	beq	ed24 <_ZN7secwork11handle_codeEv+0x23c>
    ecfc:	e3a00003 	mov	r0, #3	; 0x3
    ed00:	e59f30b0 	ldr	r3, [pc, #176]	; edb8 <_ZN7secwork11handle_codeEv+0x2d0>
    ed04:	e08f3003 	add	r3, pc, r3
    ed08:	e1a01003 	mov	r1, r3
    ed0c:	e59f30a8 	ldr	r3, [pc, #168]	; edbc <_ZN7secwork11handle_codeEv+0x2d4>
    ed10:	e08f3003 	add	r3, pc, r3
    ed14:	e1a02003 	mov	r2, r3
    ed18:	ebffea99 	bl	9784 <__android_log_print@plt>
    ed1c:	e3a00000 	mov	r0, #0	; 0x0
    ed20:	ebffea9a 	bl	9790 <exit@plt>
    ed24:	e3a00002 	mov	r0, #2	; 0x2
    ed28:	eb000026 	bl	edc8 <_Z46ilsecfunc_end_b9724cb5a79a2226baa1123b8a3825ddj>
    ed2c:	e59f3068 	ldr	r3, [pc, #104]	; ed9c <_ZN7secwork11handle_codeEv+0x2b4>
    ed30:	e51b201c 	ldr	r2, [fp, #-28]
    ed34:	e7923003 	ldr	r3, [r2, r3]
    ed38:	e5933000 	ldr	r3, [r3]
    ed3c:	e51b2010 	ldr	r2, [fp, #-16]
    ed40:	e0823003 	add	r3, r2, r3
    ed44:	e51b0010 	ldr	r0, [fp, #-16]
    ed48:	e1a01003 	mov	r1, r3
    ed4c:	eb0052e8 	bl	238f4 <__clear_cache>
    ed50:	e3a00003 	mov	r0, #3	; 0x3
    ed54:	e59f3064 	ldr	r3, [pc, #100]	; edc0 <_ZN7secwork11handle_codeEv+0x2d8>
    ed58:	e08f3003 	add	r3, pc, r3
    ed5c:	e1a01003 	mov	r1, r3
    ed60:	e59f305c 	ldr	r3, [pc, #92]	; edc4 <_ZN7secwork11handle_codeEv+0x2dc>
    ed64:	e08f3003 	add	r3, pc, r3
    ed68:	e1a02003 	mov	r2, r3
    ed6c:	ebffea84 	bl	9784 <__android_log_print@plt>
    ed70:	e51b3008 	ldr	r3, [fp, #-8]
    ed74:	e1a00003 	mov	r0, r3
    ed78:	e24bd004 	sub	sp, fp, #4	; 0x4
    ed7c:	e8bd8800 	pop	{fp, pc}
    ed80:	0001c3a4 	.word	0x0001c3a4
    ed84:	00018508 	.word	0x00018508
    ed88:	00018778 	.word	0x00018778
    ed8c:	fffffe68 	.word	0xfffffe68
    ed90:	fffffe9c 	.word	0xfffffe9c
    ed94:	fffffea0 	.word	0xfffffea0
    ed98:	0001cc64 	.word	0x0001cc64
    ed9c:	fffffea4 	.word	0xfffffea4
    eda0:	fffffea8 	.word	0xfffffea8
    eda4:	fffffeac 	.word	0xfffffeac
    eda8:	fffffeb0 	.word	0xfffffeb0
    edac:	fffffeb4 	.word	0xfffffeb4
    edb0:	fffffe88 	.word	0xfffffe88
    edb4:	fffffe08 	.word	0xfffffe08
    edb8:	00018330 	.word	0x00018330
    edbc:	000185b0 	.word	0x000185b0
    edc0:	000182dc 	.word	0x000182dc
    edc4:	000185b0 	.word	0x000185b0

0000edc8 <_Z46ilsecfunc_end_b9724cb5a79a2226baa1123b8a3825ddj>:
    edc8:	e92d4800 	push	{fp, lr}
    edcc:	e28db004 	add	fp, sp, #4	; 0x4
    edd0:	e24dd010 	sub	sp, sp, #16	; 0x10
    edd4:	e50b0010 	str	r0, [fp, #-16]
    edd8:	e59f303c 	ldr	r3, [pc, #60]	; ee1c <_Z46ilsecfunc_end_b9724cb5a79a2226baa1123b8a3825ddj+0x54>
    eddc:	e08f3003 	add	r3, pc, r3
    ede0:	e59f2038 	ldr	r2, [pc, #56]	; ee20 <_Z46ilsecfunc_end_b9724cb5a79a2226baa1123b8a3825ddj+0x58>
    ede4:	e7932002 	ldr	r2, [r3, r2]
    ede8:	e50b2008 	str	r2, [fp, #-8]
    edec:	e59f2030 	ldr	r2, [pc, #48]	; ee24 <_Z46ilsecfunc_end_b9724cb5a79a2226baa1123b8a3825ddj+0x5c>
    edf0:	e7932002 	ldr	r2, [r3, r2]
    edf4:	e50b200c 	str	r2, [fp, #-12]
    edf8:	e59f2028 	ldr	r2, [pc, #40]	; ee28 <_Z46ilsecfunc_end_b9724cb5a79a2226baa1123b8a3825ddj+0x60>
    edfc:	e7933002 	ldr	r3, [r3, r2]
    ee00:	e5933000 	ldr	r3, [r3]
    ee04:	e51b0010 	ldr	r0, [fp, #-16]
    ee08:	e51b1008 	ldr	r1, [fp, #-8]
    ee0c:	e51b200c 	ldr	r2, [fp, #-12]
    ee10:	e12fff33 	blx	r3
    ee14:	e24bd004 	sub	sp, fp, #4	; 0x4
    ee18:	e8bd8800 	pop	{fp, pc}
    ee1c:	0001c0cc 	.word	0x0001c0cc
    ee20:	fffffe40 	.word	0xfffffe40
    ee24:	fffffe44 	.word	0xfffffe44
    ee28:	fffffe20 	.word	0xfffffe20

0000ee2c <_ZN7secwork19handle_textrel_codeEv>:
    ee2c:	e92d4810 	push	{r4, fp, lr}
    ee30:	e28db008 	add	fp, sp, #8	; 0x8
    ee34:	e24dd04c 	sub	sp, sp, #76	; 0x4c
    ee38:	e50b0048 	str	r0, [fp, #-72]
    ee3c:	e59f4320 	ldr	r4, [pc, #800]	; f164 <_ZN7secwork19handle_textrel_codeEv+0x338>
    ee40:	e08f4004 	add	r4, pc, r4
    ee44:	e3a03000 	mov	r3, #0	; 0x0
    ee48:	e50b302c 	str	r3, [fp, #-44]
    ee4c:	e3a03000 	mov	r3, #0	; 0x0
    ee50:	e50b3030 	str	r3, [fp, #-48]
    ee54:	e3a03000 	mov	r3, #0	; 0x0
    ee58:	e50b3034 	str	r3, [fp, #-52]
    ee5c:	e3a03000 	mov	r3, #0	; 0x0
    ee60:	e50b3038 	str	r3, [fp, #-56]
    ee64:	e3a03000 	mov	r3, #0	; 0x0
    ee68:	e50b303c 	str	r3, [fp, #-60]
    ee6c:	e3a00003 	mov	r0, #3	; 0x3
    ee70:	e59f32f0 	ldr	r3, [pc, #752]	; f168 <_ZN7secwork19handle_textrel_codeEv+0x33c>
    ee74:	e08f3003 	add	r3, pc, r3
    ee78:	e1a01003 	mov	r1, r3
    ee7c:	e59f32e8 	ldr	r3, [pc, #744]	; f16c <_ZN7secwork19handle_textrel_codeEv+0x340>
    ee80:	e08f3003 	add	r3, pc, r3
    ee84:	e1a02003 	mov	r2, r3
    ee88:	ebffea3d 	bl	9784 <__android_log_print@plt>
    ee8c:	e59f32dc 	ldr	r3, [pc, #732]	; f170 <_ZN7secwork19handle_textrel_codeEv+0x344>
    ee90:	e7943003 	ldr	r3, [r4, r3]
    ee94:	e5932000 	ldr	r2, [r3]
    ee98:	e59f32d4 	ldr	r3, [pc, #724]	; f174 <_ZN7secwork19handle_textrel_codeEv+0x348>
    ee9c:	e7943003 	ldr	r3, [r4, r3]
    eea0:	e5933000 	ldr	r3, [r3]
    eea4:	e0823003 	add	r3, r2, r3
    eea8:	e50b3034 	str	r3, [fp, #-52]
    eeac:	e59f32c0 	ldr	r3, [pc, #704]	; f174 <_ZN7secwork19handle_textrel_codeEv+0x348>
    eeb0:	e7943003 	ldr	r3, [r4, r3]
    eeb4:	e5933000 	ldr	r3, [r3]
    eeb8:	e50b3038 	str	r3, [fp, #-56]
    eebc:	e59f32b4 	ldr	r3, [pc, #692]	; f178 <_ZN7secwork19handle_textrel_codeEv+0x34c>
    eec0:	e7943003 	ldr	r3, [r4, r3]
    eec4:	e5933000 	ldr	r3, [r3]
    eec8:	e50b303c 	str	r3, [fp, #-60]
    eecc:	e59f329c 	ldr	r3, [pc, #668]	; f170 <_ZN7secwork19handle_textrel_codeEv+0x344>
    eed0:	e7943003 	ldr	r3, [r4, r3]
    eed4:	e5932000 	ldr	r2, [r3]
    eed8:	e59f329c 	ldr	r3, [pc, #668]	; f17c <_ZN7secwork19handle_textrel_codeEv+0x350>
    eedc:	e7943003 	ldr	r3, [r4, r3]
    eee0:	e5933000 	ldr	r3, [r3]
    eee4:	e0823003 	add	r3, r2, r3
    eee8:	e50b3030 	str	r3, [fp, #-48]
    eeec:	e51b3030 	ldr	r3, [fp, #-48]
    eef0:	e3530000 	cmp	r3, #0	; 0x0
    eef4:	0a000002 	beq	ef04 <_ZN7secwork19handle_textrel_codeEv+0xd8>
    eef8:	e51b3034 	ldr	r3, [fp, #-52]
    eefc:	e3530000 	cmp	r3, #0	; 0x0
    ef00:	1a000003 	bne	ef14 <_ZN7secwork19handle_textrel_codeEv+0xe8>
    ef04:	e3e03000 	mvn	r3, #0	; 0x0
    ef08:	e50b302c 	str	r3, [fp, #-44]
    ef0c:	e51b302c 	ldr	r3, [fp, #-44]
    ef10:	ea000090 	b	f158 <_ZN7secwork19handle_textrel_codeEv+0x32c>
    ef14:	e51b3034 	ldr	r3, [fp, #-52]
    ef18:	e50b3010 	str	r3, [fp, #-16]
    ef1c:	e51b3010 	ldr	r3, [fp, #-16]
    ef20:	e50b3014 	str	r3, [fp, #-20]
    ef24:	e3a03000 	mov	r3, #0	; 0x0
    ef28:	e50b3040 	str	r3, [fp, #-64]
    ef2c:	e3a03000 	mov	r3, #0	; 0x0
    ef30:	e50b3044 	str	r3, [fp, #-68]
    ef34:	e3a03000 	mov	r3, #0	; 0x0
    ef38:	e50b3018 	str	r3, [fp, #-24]
    ef3c:	e3a03000 	mov	r3, #0	; 0x0
    ef40:	e50b301c 	str	r3, [fp, #-28]
    ef44:	e59f3234 	ldr	r3, [pc, #564]	; f180 <_ZN7secwork19handle_textrel_codeEv+0x354>
    ef48:	e7943003 	ldr	r3, [r4, r3]
    ef4c:	e5933000 	ldr	r3, [r3]
    ef50:	e1a03123 	lsr	r3, r3, #2
    ef54:	e50b3020 	str	r3, [fp, #-32]
    ef58:	e59f3224 	ldr	r3, [pc, #548]	; f184 <_ZN7secwork19handle_textrel_codeEv+0x358>
    ef5c:	e7943003 	ldr	r3, [r4, r3]
    ef60:	e50b3024 	str	r3, [fp, #-36]
    ef64:	ea00002f 	b	f028 <_ZN7secwork19handle_textrel_codeEv+0x1fc>
    ef68:	e51b3024 	ldr	r3, [fp, #-36]
    ef6c:	e593c000 	ldr	ip, [r3]
    ef70:	e51b3034 	ldr	r3, [fp, #-52]
    ef74:	e58d3000 	str	r3, [sp]
    ef78:	e3a00003 	mov	r0, #3	; 0x3
    ef7c:	e59f3204 	ldr	r3, [pc, #516]	; f188 <_ZN7secwork19handle_textrel_codeEv+0x35c>
    ef80:	e08f3003 	add	r3, pc, r3
    ef84:	e1a01003 	mov	r1, r3
    ef88:	e59f31fc 	ldr	r3, [pc, #508]	; f18c <_ZN7secwork19handle_textrel_codeEv+0x360>
    ef8c:	e08f3003 	add	r3, pc, r3
    ef90:	e1a02003 	mov	r2, r3
    ef94:	e1a0300c 	mov	r3, ip
    ef98:	ebffe9f9 	bl	9784 <__android_log_print@plt>
    ef9c:	e51b3024 	ldr	r3, [fp, #-36]
    efa0:	e5932000 	ldr	r2, [r3]
    efa4:	e51b3038 	ldr	r3, [fp, #-56]
    efa8:	e0633002 	rsb	r3, r3, r2
    efac:	e50b301c 	str	r3, [fp, #-28]
    efb0:	e51b3024 	ldr	r3, [fp, #-36]
    efb4:	e2833004 	add	r3, r3, #4	; 0x4
    efb8:	e50b3024 	str	r3, [fp, #-36]
    efbc:	e51b201c 	ldr	r2, [fp, #-28]
    efc0:	e51b3018 	ldr	r3, [fp, #-24]
    efc4:	e0633002 	rsb	r3, r3, r2
    efc8:	e50b3040 	str	r3, [fp, #-64]
    efcc:	e51b3040 	ldr	r3, [fp, #-64]
    efd0:	e3530000 	cmp	r3, #0	; 0x0
    efd4:	0a000009 	beq	f000 <_ZN7secwork19handle_textrel_codeEv+0x1d4>
    efd8:	e51b2040 	ldr	r2, [fp, #-64]
    efdc:	e51b3030 	ldr	r3, [fp, #-48]
    efe0:	e59f11a8 	ldr	r1, [pc, #424]	; f190 <_ZN7secwork19handle_textrel_codeEv+0x364>
    efe4:	e7941001 	ldr	r1, [r4, r1]
    efe8:	e5911000 	ldr	r1, [r1]
    efec:	e58d1000 	str	r1, [sp]
    eff0:	e51b0010 	ldr	r0, [fp, #-16]
    eff4:	e51b1014 	ldr	r1, [fp, #-20]
    eff8:	eb002cc1 	bl	1a304 <tdog_decrypt_stream>
    effc:	ea000000 	b	f004 <_ZN7secwork19handle_textrel_codeEv+0x1d8>
    f000:	e1a00000 	nop			(mov r0,r0)
    f004:	e51b301c 	ldr	r3, [fp, #-28]
    f008:	e2833004 	add	r3, r3, #4	; 0x4
    f00c:	e50b3018 	str	r3, [fp, #-24]
    f010:	e51b2034 	ldr	r2, [fp, #-52]
    f014:	e51b3018 	ldr	r3, [fp, #-24]
    f018:	e0823003 	add	r3, r2, r3
    f01c:	e50b3010 	str	r3, [fp, #-16]
    f020:	e51b3010 	ldr	r3, [fp, #-16]
    f024:	e50b3014 	str	r3, [fp, #-20]
    f028:	e51b3020 	ldr	r3, [fp, #-32]
    f02c:	e3530000 	cmp	r3, #0	; 0x0
    f030:	03a03000 	moveq	r3, #0	; 0x0
    f034:	13a03001 	movne	r3, #1	; 0x1
    f038:	e20330ff 	and	r3, r3, #255	; 0xff
    f03c:	e51b2020 	ldr	r2, [fp, #-32]
    f040:	e2422001 	sub	r2, r2, #1	; 0x1
    f044:	e50b2020 	str	r2, [fp, #-32]
    f048:	e3530000 	cmp	r3, #0	; 0x0
    f04c:	1affffc5 	bne	ef68 <_ZN7secwork19handle_textrel_codeEv+0x13c>
    f050:	e51b301c 	ldr	r3, [fp, #-28]
    f054:	e2832004 	add	r2, r3, #4	; 0x4
    f058:	e51b303c 	ldr	r3, [fp, #-60]
    f05c:	e1520003 	cmp	r2, r3
    f060:	2a00000d 	bcs	f09c <_ZN7secwork19handle_textrel_codeEv+0x270>
    f064:	e51b203c 	ldr	r2, [fp, #-60]
    f068:	e51b301c 	ldr	r3, [fp, #-28]
    f06c:	e0633002 	rsb	r3, r3, r2
    f070:	e2433004 	sub	r3, r3, #4	; 0x4
    f074:	e50b3040 	str	r3, [fp, #-64]
    f078:	e51b2040 	ldr	r2, [fp, #-64]
    f07c:	e51b3030 	ldr	r3, [fp, #-48]
    f080:	e59f1108 	ldr	r1, [pc, #264]	; f190 <_ZN7secwork19handle_textrel_codeEv+0x364>
    f084:	e7941001 	ldr	r1, [r4, r1]
    f088:	e5911000 	ldr	r1, [r1]
    f08c:	e58d1000 	str	r1, [sp]
    f090:	e51b0010 	ldr	r0, [fp, #-16]
    f094:	e51b1014 	ldr	r1, [fp, #-20]
    f098:	eb002c99 	bl	1a304 <tdog_decrypt_stream>
    f09c:	e3a03000 	mov	r3, #0	; 0x0
    f0a0:	e50b3028 	str	r3, [fp, #-40]
    f0a4:	ea000010 	b	f0ec <_ZN7secwork19handle_textrel_codeEv+0x2c0>
    f0a8:	e51b3028 	ldr	r3, [fp, #-40]
    f0ac:	e51b2034 	ldr	r2, [fp, #-52]
    f0b0:	e0823003 	add	r3, r2, r3
    f0b4:	e5d33000 	ldrb	r3, [r3]
    f0b8:	e58d3000 	str	r3, [sp]
    f0bc:	e3a00003 	mov	r0, #3	; 0x3
    f0c0:	e59f30cc 	ldr	r3, [pc, #204]	; f194 <_ZN7secwork19handle_textrel_codeEv+0x368>
    f0c4:	e08f3003 	add	r3, pc, r3
    f0c8:	e1a01003 	mov	r1, r3
    f0cc:	e59f30c4 	ldr	r3, [pc, #196]	; f198 <_ZN7secwork19handle_textrel_codeEv+0x36c>
    f0d0:	e08f3003 	add	r3, pc, r3
    f0d4:	e1a02003 	mov	r2, r3
    f0d8:	e51b3028 	ldr	r3, [fp, #-40]
    f0dc:	ebffe9a8 	bl	9784 <__android_log_print@plt>
    f0e0:	e51b3028 	ldr	r3, [fp, #-40]
    f0e4:	e2833001 	add	r3, r3, #1	; 0x1
    f0e8:	e50b3028 	str	r3, [fp, #-40]
    f0ec:	e51b2028 	ldr	r2, [fp, #-40]
    f0f0:	e59f3080 	ldr	r3, [pc, #128]	; f178 <_ZN7secwork19handle_textrel_codeEv+0x34c>
    f0f4:	e7943003 	ldr	r3, [r4, r3]
    f0f8:	e5933000 	ldr	r3, [r3]
    f0fc:	e1520003 	cmp	r2, r3
    f100:	23a03000 	movcs	r3, #0	; 0x0
    f104:	33a03001 	movcc	r3, #1	; 0x1
    f108:	e20330ff 	and	r3, r3, #255	; 0xff
    f10c:	e3530000 	cmp	r3, #0	; 0x0
    f110:	1affffe4 	bne	f0a8 <_ZN7secwork19handle_textrel_codeEv+0x27c>
    f114:	e59f305c 	ldr	r3, [pc, #92]	; f178 <_ZN7secwork19handle_textrel_codeEv+0x34c>
    f118:	e7943003 	ldr	r3, [r4, r3]
    f11c:	e5933000 	ldr	r3, [r3]
    f120:	e51b2034 	ldr	r2, [fp, #-52]
    f124:	e0823003 	add	r3, r2, r3
    f128:	e51b0034 	ldr	r0, [fp, #-52]
    f12c:	e1a01003 	mov	r1, r3
    f130:	eb0051ef 	bl	238f4 <__clear_cache>
    f134:	e3a00003 	mov	r0, #3	; 0x3
    f138:	e59f305c 	ldr	r3, [pc, #92]	; f19c <_ZN7secwork19handle_textrel_codeEv+0x370>
    f13c:	e08f3003 	add	r3, pc, r3
    f140:	e1a01003 	mov	r1, r3
    f144:	e59f3054 	ldr	r3, [pc, #84]	; f1a0 <_ZN7secwork19handle_textrel_codeEv+0x374>
    f148:	e08f3003 	add	r3, pc, r3
    f14c:	e1a02003 	mov	r2, r3
    f150:	ebffe98b 	bl	9784 <__android_log_print@plt>
    f154:	e51b302c 	ldr	r3, [fp, #-44]
    f158:	e1a00003 	mov	r0, r3
    f15c:	e24bd008 	sub	sp, fp, #8	; 0x8
    f160:	e8bd8810 	pop	{r4, fp, pc}
    f164:	0001c068 	.word	0x0001c068
    f168:	000181c0 	.word	0x000181c0
    f16c:	000184a8 	.word	0x000184a8
    f170:	fffffe68 	.word	0xfffffe68
    f174:	fffffe9c 	.word	0xfffffe9c
    f178:	fffffea4 	.word	0xfffffea4
    f17c:	fffffea0 	.word	0xfffffea0
    f180:	fffffe88 	.word	0xfffffe88
    f184:	fffffeb8 	.word	0xfffffeb8
    f188:	000180b4 	.word	0x000180b4
    f18c:	000183b4 	.word	0x000183b4
    f190:	fffffeb0 	.word	0xfffffeb0
    f194:	00017f70 	.word	0x00017f70
    f198:	00018298 	.word	0x00018298
    f19c:	00017ef8 	.word	0x00017ef8
    f1a0:	00018230 	.word	0x00018230

0000f1a4 <_Z48ilsecfunc_start_f956cd982462b3664b4572968f959436v>:
    f1a4:	e52db004 	push	{fp}		; (str fp, [sp, #-4]!)
    f1a8:	e28db000 	add	fp, sp, #0	; 0x0
    f1ac:	e28bd000 	add	sp, fp, #0	; 0x0
    f1b0:	e8bd0800 	pop	{fp}
    f1b4:	e12fff1e 	bx	lr

0000f1b8 <_ZN7secwork10handle_eatEv>:
    f1b8:	e92d4810 	push	{r4, fp, lr}
    f1bc:	e28db008 	add	fp, sp, #8	; 0x8
    f1c0:	e24dd03c 	sub	sp, sp, #60	; 0x3c
    f1c4:	e50b0040 	str	r0, [fp, #-64]
    f1c8:	e59f217c 	ldr	r2, [pc, #380]	; f34c <_ZN7secwork10handle_eatEv+0x194>
    f1cc:	e50b2044 	str	r2, [fp, #-68]
    f1d0:	e51b3044 	ldr	r3, [fp, #-68]
    f1d4:	e08f3003 	add	r3, pc, r3
    f1d8:	e50b3044 	str	r3, [fp, #-68]
    f1dc:	e3a03000 	mov	r3, #0	; 0x0
    f1e0:	e50b3010 	str	r3, [fp, #-16]
    f1e4:	e3a03000 	mov	r3, #0	; 0x0
    f1e8:	e50b3014 	str	r3, [fp, #-20]
    f1ec:	e3a03000 	mov	r3, #0	; 0x0
    f1f0:	e50b3018 	str	r3, [fp, #-24]
    f1f4:	e24b3024 	sub	r3, fp, #36	; 0x24
    f1f8:	e1a00003 	mov	r0, r3
    f1fc:	ebffed18 	bl	a664 <_ZN5ilistC1Ev>
    f200:	e3a03000 	mov	r3, #0	; 0x0
    f204:	e50b301c 	str	r3, [fp, #-28]
    f208:	e3a00003 	mov	r0, #3	; 0x3
    f20c:	e59f313c 	ldr	r3, [pc, #316]	; f350 <_ZN7secwork10handle_eatEv+0x198>
    f210:	e08f3003 	add	r3, pc, r3
    f214:	e1a01003 	mov	r1, r3
    f218:	e59f3134 	ldr	r3, [pc, #308]	; f354 <_ZN7secwork10handle_eatEv+0x19c>
    f21c:	e08f3003 	add	r3, pc, r3
    f220:	e1a02003 	mov	r2, r3
    f224:	ebffe956 	bl	9784 <__android_log_print@plt>
    f228:	e59f3128 	ldr	r3, [pc, #296]	; f358 <_ZN7secwork10handle_eatEv+0x1a0>
    f22c:	e51b2044 	ldr	r2, [fp, #-68]
    f230:	e7923003 	ldr	r3, [r2, r3]
    f234:	e5933000 	ldr	r3, [r3]
    f238:	e3530000 	cmp	r3, #0	; 0x0
    f23c:	1a000001 	bne	f248 <_ZN7secwork10handle_eatEv+0x90>
    f240:	e51b4010 	ldr	r4, [fp, #-16]
    f244:	ea000035 	b	f320 <_ZN7secwork10handle_eatEv+0x168>
    f248:	e59f310c 	ldr	r3, [pc, #268]	; f35c <_ZN7secwork10handle_eatEv+0x1a4>
    f24c:	e51b2044 	ldr	r2, [fp, #-68]
    f250:	e7923003 	ldr	r3, [r2, r3]
    f254:	e5933000 	ldr	r3, [r3]
    f258:	e50b3038 	str	r3, [fp, #-56]
    f25c:	e59f30fc 	ldr	r3, [pc, #252]	; f360 <_ZN7secwork10handle_eatEv+0x1a8>
    f260:	e51b2044 	ldr	r2, [fp, #-68]
    f264:	e7923003 	ldr	r3, [r2, r3]
    f268:	e5933000 	ldr	r3, [r3]
    f26c:	e50b3034 	str	r3, [fp, #-52]
    f270:	e59f30ec 	ldr	r3, [pc, #236]	; f364 <_ZN7secwork10handle_eatEv+0x1ac>
    f274:	e51b2044 	ldr	r2, [fp, #-68]
    f278:	e7923003 	ldr	r3, [r2, r3]
    f27c:	e5933000 	ldr	r3, [r3]
    f280:	e50b3030 	str	r3, [fp, #-48]
    f284:	e59f30dc 	ldr	r3, [pc, #220]	; f368 <_ZN7secwork10handle_eatEv+0x1b0>
    f288:	e51b2044 	ldr	r2, [fp, #-68]
    f28c:	e7923003 	ldr	r3, [r2, r3]
    f290:	e5933000 	ldr	r3, [r3]
    f294:	e50b3028 	str	r3, [fp, #-40]
    f298:	e59f30cc 	ldr	r3, [pc, #204]	; f36c <_ZN7secwork10handle_eatEv+0x1b4>
    f29c:	e51b2044 	ldr	r2, [fp, #-68]
    f2a0:	e7923003 	ldr	r3, [r2, r3]
    f2a4:	e5933000 	ldr	r3, [r3]
    f2a8:	e50b302c 	str	r3, [fp, #-44]
    f2ac:	e59f30bc 	ldr	r3, [pc, #188]	; f370 <_ZN7secwork10handle_eatEv+0x1b8>
    f2b0:	e08f3003 	add	r3, pc, r3
    f2b4:	e1a00003 	mov	r0, r3
    f2b8:	ebffe964 	bl	9850 <setjmp@plt>
    f2bc:	e1a03000 	mov	r3, r0
    f2c0:	e3530000 	cmp	r3, #0	; 0x0
    f2c4:	03a03000 	moveq	r3, #0	; 0x0
    f2c8:	13a03001 	movne	r3, #1	; 0x1
    f2cc:	e20330ff 	and	r3, r3, #255	; 0xff
    f2d0:	e3530000 	cmp	r3, #0	; 0x0
    f2d4:	0a000001 	beq	f2e0 <_ZN7secwork10handle_eatEv+0x128>
    f2d8:	eb002a27 	bl	19b7c <_Z8dispatchv>
    f2dc:	ea00000c 	b	f314 <_ZN7secwork10handle_eatEv+0x15c>
    f2e0:	e59f308c 	ldr	r3, [pc, #140]	; f374 <_ZN7secwork10handle_eatEv+0x1bc>
    f2e4:	e51b2044 	ldr	r2, [fp, #-68]
    f2e8:	e7923003 	ldr	r3, [r2, r3]
    f2ec:	e5931000 	ldr	r1, [r3]
    f2f0:	e59f3080 	ldr	r3, [pc, #128]	; f378 <_ZN7secwork10handle_eatEv+0x1c0>
    f2f4:	e51b2044 	ldr	r2, [fp, #-68]
    f2f8:	e7923003 	ldr	r3, [r2, r3]
    f2fc:	e5932000 	ldr	r2, [r3]
    f300:	e24b3038 	sub	r3, fp, #56	; 0x38
    f304:	e1a00001 	mov	r0, r1
    f308:	e1a01002 	mov	r1, r2
    f30c:	e1a02003 	mov	r2, r3
    f310:	ebfffb31 	bl	dfdc <_Z18dog_decrypt_strtabjjP13_STRTAB_INFO_>
    f314:	e3a00003 	mov	r0, #3	; 0x3
    f318:	eb000017 	bl	f37c <_Z46ilsecfunc_end_f956cd982462b3664b4572968f959436j>
    f31c:	e51b4010 	ldr	r4, [fp, #-16]
    f320:	e24b3024 	sub	r3, fp, #36	; 0x24
    f324:	e1a00003 	mov	r0, r3
    f328:	ebffecdc 	bl	a6a0 <_ZN5ilistD1Ev>
    f32c:	e1a03004 	mov	r3, r4
    f330:	e1a00003 	mov	r0, r3
    f334:	e24bd008 	sub	sp, fp, #8	; 0x8
    f338:	e8bd8810 	pop	{r4, fp, pc}
    f33c:	e24b3024 	sub	r3, fp, #36	; 0x24
    f340:	e1a00003 	mov	r0, r3
    f344:	ebffecd5 	bl	a6a0 <_ZN5ilistD1Ev>
    f348:	eb000568 	bl	108f0 <__cxa_end_cleanup>
    f34c:	0001bcd4 	.word	0x0001bcd4
    f350:	00017e24 	.word	0x00017e24
    f354:	00018178 	.word	0x00018178
    f358:	fffffebc 	.word	0xfffffebc
    f35c:	fffffe68 	.word	0xfffffe68
    f360:	fffffec0 	.word	0xfffffec0
    f364:	fffffec4 	.word	0xfffffec4
    f368:	fffffec8 	.word	0xfffffec8
    f36c:	fffffecc 	.word	0xfffffecc
    f370:	0001c574 	.word	0x0001c574
    f374:	fffffed0 	.word	0xfffffed0
    f378:	fffffed4 	.word	0xfffffed4

0000f37c <_Z46ilsecfunc_end_f956cd982462b3664b4572968f959436j>:
    f37c:	e92d4800 	push	{fp, lr}
    f380:	e28db004 	add	fp, sp, #4	; 0x4
    f384:	e24dd010 	sub	sp, sp, #16	; 0x10
    f388:	e50b0010 	str	r0, [fp, #-16]
